MP2COD 4.1, COFF to COD File Converter
Copyright (c) 2006 Microchip Technology Inc.
Listing File Generated: Sun Apr 08 18:15:59 2007


Address  Value    Disassembly              Source                                                                           File
-------  -------  -----------------------  -------------------------------------------------------------------------------  -----
                                           /* $Id: c018i.c,v 1.7 2006/11/15 22:53:12 moshtaa Exp $ */                       C:\MCC18\src\traditional\startup\c018i.c
                                                                                                                            C:\MCC18\src\traditional\startup\c018i.c
                                           /* Copyright (c)1999 Microchip Technology */                                     C:\MCC18\src\traditional\startup\c018i.c
                                                                                                                            C:\MCC18\src\traditional\startup\c018i.c
                                           /* MPLAB-C18 startup code, including initialized data */                         C:\MCC18\src\traditional\startup\c018i.c
                                                                                                                            C:\MCC18\src\traditional\startup\c018i.c
                                           /* external reference to __init() function */                                    C:\MCC18\src\traditional\startup\c018i.c
                                           extern void __init (void);                                                       C:\MCC18\src\traditional\startup\c018i.c
                                           /* external reference to the user's main routine */                              C:\MCC18\src\traditional\startup\c018i.c
                                           extern void main (void);                                                         C:\MCC18\src\traditional\startup\c018i.c
                                           /* prototype for the startup function */                                         C:\MCC18\src\traditional\startup\c018i.c
                                           void _entry (void);                                                              C:\MCC18\src\traditional\startup\c018i.c
                                           void _startup (void);                                                            C:\MCC18\src\traditional\startup\c018i.c
                                           /* prototype for the initialized data setup */                                   C:\MCC18\src\traditional\startup\c018i.c
                                           void _do_cinit (void);                                                           C:\MCC18\src\traditional\startup\c018i.c
                                                                                                                            C:\MCC18\src\traditional\startup\c018i.c
                                           extern volatile near unsigned long short TBLPTR;                                 C:\MCC18\src\traditional\startup\c018i.c
                                           extern near unsigned FSR0;                                                       C:\MCC18\src\traditional\startup\c018i.c
                                           extern near char __FPFLAGS;                                                      C:\MCC18\src\traditional\startup\c018i.c
                                           #define RND 6                                                                    C:\MCC18\src\traditional\startup\c018i.c
                                                                                                                            C:\MCC18\src\traditional\startup\c018i.c
                                           #pragma code _entry_scn=0x000000                                                 C:\MCC18\src\traditional\startup\c018i.c
                                           void                                                                             C:\MCC18\src\traditional\startup\c018i.c
                                           _entry (void)                                                                    C:\MCC18\src\traditional\startup\c018i.c
                                           {                                                                                C:\MCC18\src\traditional\startup\c018i.c
000000   eff1     GOTO      0x17e2         _asm goto _startup _endasm                                                       C:\MCC18\src\traditional\startup\c018i.c
000002   f00b                                                                                                               
                                                                                                                            C:\MCC18\src\traditional\startup\c018i.c
000004   0012     RETURN    0x0            }                                                                                C:\MCC18\src\traditional\startup\c018i.c
                                           #pragma code _startup_scn                                                        C:\MCC18\src\traditional\startup\c018i.c
                                           void                                                                             C:\MCC18\src\traditional\startup\c018i.c
                                           _startup (void)                                                                  C:\MCC18\src\traditional\startup\c018i.c
                                           {                                                                                C:\MCC18\src\traditional\startup\c018i.c
                                             _asm                                                                           C:\MCC18\src\traditional\startup\c018i.c
                                               // Initialize the stack pointer                                              C:\MCC18\src\traditional\startup\c018i.c
0017e2   ee13     LFSR      0x1,0x300          lfsr 1, _stack                                                               C:\MCC18\src\traditional\startup\c018i.c
0017e4   f000                                                                                                               
0017e6   ee23     LFSR      0x2,0x300          lfsr 2, _stack                                                               C:\MCC18\src\traditional\startup\c018i.c
0017e8   f000                                                                                                               
                                                                                                                            C:\MCC18\src\traditional\startup\c018i.c
0017ea   6af8     CLRF      0xf8,0x0           clrf TBLPTRU, 0 // 1st silicon doesn't do this on POR                        C:\MCC18\src\traditional\startup\c018i.c
                                                                                                                            C:\MCC18\src\traditional\startup\c018i.c
0017ec   9c01     BCF       0x1,0x6,0x0        bcf __FPFLAGS,RND,0 // Initialize rounding flag for floating point libs      C:\MCC18\src\traditional\startup\c018i.c
                                                                                                                            C:\MCC18\src\traditional\startup\c018i.c
                                               _endasm                                                                      C:\MCC18\src\traditional\startup\c018i.c
0017ee   ec5e     CALL      0x16bc,0x0         _do_cinit ();                                                                C:\MCC18\src\traditional\startup\c018i.c
0017f0   f00b                                                                                                               
                                                                                                                            C:\MCC18\src\traditional\startup\c018i.c
                                           loop:                                                                            C:\MCC18\src\traditional\startup\c018i.c
                                                                                                                            C:\MCC18\src\traditional\startup\c018i.c
                                             // If user defined __init is not found, the one in clib.lib will be used       C:\MCC18\src\traditional\startup\c018i.c
0017f2   ecff     CALL      0x17fe,0x0       __init ();                                                                     C:\MCC18\src\traditional\startup\c018i.c
0017f4   f00b                                                                                                               
                                                                                                                            C:\MCC18\src\traditional\startup\c018i.c
                                             // Call the user's main routine                                                C:\MCC18\src\traditional\startup\c018i.c
0017f6   ecda     CALL      0x17b4,0x0       main ();                                                                       C:\MCC18\src\traditional\startup\c018i.c
0017f8   f00b                                                                                                               
                                                                                                                            C:\MCC18\src\traditional\startup\c018i.c
0017fa   d7fb     BRA       0x17f2           goto loop;                                                                     C:\MCC18\src\traditional\startup\c018i.c
0017fc   0012     RETURN    0x0            }                               /* end _startup() */                             C:\MCC18\src\traditional\startup\c018i.c
                                                                                                                            C:\MCC18\src\traditional\startup\c018i.c
                                           /* MPLAB-C18 initialized data memory support */                                  C:\MCC18\src\traditional\startup\c018i.c
                                           /* The linker will populate the _cinit table */                                  C:\MCC18\src\traditional\startup\c018i.c
                                           extern far rom struct                                                            C:\MCC18\src\traditional\startup\c018i.c
                                           {                                                                                C:\MCC18\src\traditional\startup\c018i.c
                                             unsigned short num_init;                                                       C:\MCC18\src\traditional\startup\c018i.c
                                             struct _init_entry                                                             C:\MCC18\src\traditional\startup\c018i.c
                                             {                                                                              C:\MCC18\src\traditional\startup\c018i.c
                                               unsigned long from;                                                          C:\MCC18\src\traditional\startup\c018i.c
                                               unsigned long to;                                                            C:\MCC18\src\traditional\startup\c018i.c
                                               unsigned long size;                                                          C:\MCC18\src\traditional\startup\c018i.c
                                             }                                                                              C:\MCC18\src\traditional\startup\c018i.c
                                             entries[];                                                                     C:\MCC18\src\traditional\startup\c018i.c
                                           }                                                                                C:\MCC18\src\traditional\startup\c018i.c
                                           _cinit;                                                                          C:\MCC18\src\traditional\startup\c018i.c
                                                                                                                            C:\MCC18\src\traditional\startup\c018i.c
                                           #pragma code _cinit_scn                                                          C:\MCC18\src\traditional\startup\c018i.c
                                           void                                                                             C:\MCC18\src\traditional\startup\c018i.c
                                           _do_cinit (void)                                                                 C:\MCC18\src\traditional\startup\c018i.c
                                           {                                                                                C:\MCC18\src\traditional\startup\c018i.c
                                             /* we'll make the assumption in the following code that these statics          C:\MCC18\src\traditional\startup\c018i.c
                                              * will be allocated into the same bank.                                       C:\MCC18\src\traditional\startup\c018i.c
                                              */                                                                            C:\MCC18\src\traditional\startup\c018i.c
                                             static short long prom;                                                        C:\MCC18\src\traditional\startup\c018i.c
                                             static unsigned short curr_byte;                                               C:\MCC18\src\traditional\startup\c018i.c
                                             static unsigned short curr_entry;                                              C:\MCC18\src\traditional\startup\c018i.c
                                             static short long data_ptr;                                                    C:\MCC18\src\traditional\startup\c018i.c
                                                                                                                            C:\MCC18\src\traditional\startup\c018i.c
                                             // Initialized data...                                                         C:\MCC18\src\traditional\startup\c018i.c
0016bc   0e2a     MOVLW     0x2a             TBLPTR = (short long)&_cinit;                                                  C:\MCC18\src\traditional\startup\c018i.c
0016be   6ef6     MOVWF     0xf6,0x0                                                                                        
0016c0   0e08     MOVLW     0x8                                                                                             
0016c2   6ef7     MOVWF     0xf7,0x0                                                                                        
0016c4   0e00     MOVLW     0x0                                                                                             
0016c6   6ef8     MOVWF     0xf8,0x0                                                                                        
                                             _asm                                                                           C:\MCC18\src\traditional\startup\c018i.c
0016c8   0100     MOVLB     0x0                movlb data_ptr                                                               C:\MCC18\src\traditional\startup\c018i.c
0016ca   0009     TBLRDPOSTINC                 tblrdpostinc                                                                 C:\MCC18\src\traditional\startup\c018i.c
0016cc   50f5     MOVF      0xf5,0x0,0x0       movf TABLAT, 0, 0                                                            C:\MCC18\src\traditional\startup\c018i.c
0016ce   6fe5     MOVWF     0xe5,0x1           movwf curr_entry, 1                                                          C:\MCC18\src\traditional\startup\c018i.c
0016d0   0009     TBLRDPOSTINC                 tblrdpostinc                                                                 C:\MCC18\src\traditional\startup\c018i.c
0016d2   50f5     MOVF      0xf5,0x0,0x0       movf TABLAT, 0, 0                                                            C:\MCC18\src\traditional\startup\c018i.c
0016d4   6fe6     MOVWF     0xe6,0x1           movwf curr_entry+1, 1                                                        C:\MCC18\src\traditional\startup\c018i.c
                                             _endasm                                                                        C:\MCC18\src\traditional\startup\c018i.c
                                               //while (curr_entry)                                                         C:\MCC18\src\traditional\startup\c018i.c
                                               //{                                                                          C:\MCC18\src\traditional\startup\c018i.c
                                               test:                                                                        C:\MCC18\src\traditional\startup\c018i.c
                                               _asm                                                                         C:\MCC18\src\traditional\startup\c018i.c
0016d6   e103     BNZ       0x16de              bnz 3                                                                       C:\MCC18\src\traditional\startup\c018i.c
0016d8   67e5     TSTFSZ    0xe5,0x1           tstfsz curr_entry, 1                                                         C:\MCC18\src\traditional\startup\c018i.c
0016da   d001     BRA       0x16de             bra 1                                                                        C:\MCC18\src\traditional\startup\c018i.c
                                               _endasm                                                                      C:\MCC18\src\traditional\startup\c018i.c
0016dc   d03d     BRA       0x1758             goto done;                                                                   C:\MCC18\src\traditional\startup\c018i.c
                                                 /* Count down so we only have to look up the data in _cinit                C:\MCC18\src\traditional\startup\c018i.c
                                                  * once.                                                                   C:\MCC18\src\traditional\startup\c018i.c
                                                  *                                                                         C:\MCC18\src\traditional\startup\c018i.c
                                                  * At this point we know that TBLPTR points to the top of the current      C:\MCC18\src\traditional\startup\c018i.c
                                                  * entry in _cinit, so we can just start reading the from, to, and         C:\MCC18\src\traditional\startup\c018i.c
                                                  * size values.                                                            C:\MCC18\src\traditional\startup\c018i.c
                                                  */                                                                        C:\MCC18\src\traditional\startup\c018i.c
                                                 _asm                                                                       C:\MCC18\src\traditional\startup\c018i.c
                                           	/* read the source address */                                                   C:\MCC18\src\traditional\startup\c018i.c
0016de   0009     TBLRDPOSTINC             	tblrdpostinc                                                                    C:\MCC18\src\traditional\startup\c018i.c
0016e0   50f5     MOVF      0xf5,0x0,0x0   	movf TABLAT, 0, 0                                                               C:\MCC18\src\traditional\startup\c018i.c
0016e2   6fe0     MOVWF     0xe0,0x1       	movwf prom, 1                                                                   C:\MCC18\src\traditional\startup\c018i.c
0016e4   0009     TBLRDPOSTINC             	tblrdpostinc                                                                    C:\MCC18\src\traditional\startup\c018i.c
0016e6   50f5     MOVF      0xf5,0x0,0x0   	movf TABLAT, 0, 0                                                               C:\MCC18\src\traditional\startup\c018i.c
0016e8   6fe1     MOVWF     0xe1,0x1       	movwf prom+1, 1                                                                 C:\MCC18\src\traditional\startup\c018i.c
0016ea   0009     TBLRDPOSTINC             	tblrdpostinc                                                                    C:\MCC18\src\traditional\startup\c018i.c
0016ec   50f5     MOVF      0xf5,0x0,0x0   	movf TABLAT, 0, 0                                                               C:\MCC18\src\traditional\startup\c018i.c
0016ee   6fe2     MOVWF     0xe2,0x1       	movwf prom+2, 1                                                                 C:\MCC18\src\traditional\startup\c018i.c
                                           	/* skip a byte since it's stored as a 32bit int */                              C:\MCC18\src\traditional\startup\c018i.c
0016f0   0009     TBLRDPOSTINC             	tblrdpostinc                                                                    C:\MCC18\src\traditional\startup\c018i.c
                                           	/* read the destination address directly into FSR0 */                           C:\MCC18\src\traditional\startup\c018i.c
0016f2   0009     TBLRDPOSTINC             	tblrdpostinc                                                                    C:\MCC18\src\traditional\startup\c018i.c
0016f4   50f5     MOVF      0xf5,0x0,0x0   	movf TABLAT, 0, 0                                                               C:\MCC18\src\traditional\startup\c018i.c
0016f6   6ee9     MOVWF     0xe9,0x0       	movwf FSR0L, 0                                                                  C:\MCC18\src\traditional\startup\c018i.c
0016f8   0009     TBLRDPOSTINC             	tblrdpostinc                                                                    C:\MCC18\src\traditional\startup\c018i.c
0016fa   50f5     MOVF      0xf5,0x0,0x0   	movf TABLAT, 0, 0                                                               C:\MCC18\src\traditional\startup\c018i.c
0016fc   6eea     MOVWF     0xea,0x0       	movwf FSR0H, 0                                                                  C:\MCC18\src\traditional\startup\c018i.c
                                           	/* skip two bytes since it's stored as a 32bit int */                           C:\MCC18\src\traditional\startup\c018i.c
0016fe   0009     TBLRDPOSTINC             	tblrdpostinc                                                                    C:\MCC18\src\traditional\startup\c018i.c
001700   0009     TBLRDPOSTINC             	tblrdpostinc                                                                    C:\MCC18\src\traditional\startup\c018i.c
                                           	/* read the destination address directly into FSR0 */                           C:\MCC18\src\traditional\startup\c018i.c
001702   0009     TBLRDPOSTINC             	tblrdpostinc                                                                    C:\MCC18\src\traditional\startup\c018i.c
001704   50f5     MOVF      0xf5,0x0,0x0   	movf TABLAT, 0, 0                                                               C:\MCC18\src\traditional\startup\c018i.c
001706   6fe3     MOVWF     0xe3,0x1       	movwf curr_byte, 1                                                              C:\MCC18\src\traditional\startup\c018i.c
001708   0009     TBLRDPOSTINC             	tblrdpostinc                                                                    C:\MCC18\src\traditional\startup\c018i.c
00170a   50f5     MOVF      0xf5,0x0,0x0   	movf TABLAT, 0, 0                                                               C:\MCC18\src\traditional\startup\c018i.c
00170c   6fe4     MOVWF     0xe4,0x1       	movwf curr_byte+1, 1                                                            C:\MCC18\src\traditional\startup\c018i.c
                                           	/* skip two bytes since it's stored as a 32bit int */                           C:\MCC18\src\traditional\startup\c018i.c
00170e   0009     TBLRDPOSTINC             	tblrdpostinc                                                                    C:\MCC18\src\traditional\startup\c018i.c
001710   0009     TBLRDPOSTINC             	tblrdpostinc                                                                    C:\MCC18\src\traditional\startup\c018i.c
                                                 _endasm                                                                    C:\MCC18\src\traditional\startup\c018i.c
                                                 //prom = data_ptr->from;                                                   C:\MCC18\src\traditional\startup\c018i.c
                                                 //FSR0 = data_ptr->to;                                                     C:\MCC18\src\traditional\startup\c018i.c
                                                 //curr_byte = (unsigned short) data_ptr->size;                             C:\MCC18\src\traditional\startup\c018i.c
                                                 /* the table pointer now points to the next entry. Save it                 C:\MCC18\src\traditional\startup\c018i.c
                                                  * off since we'll be using the table pointer to do the copying            C:\MCC18\src\traditional\startup\c018i.c
                                                  * for the entry.                                                          C:\MCC18\src\traditional\startup\c018i.c
                                                  */                                                                        C:\MCC18\src\traditional\startup\c018i.c
001712   cff6     MOVFF     0xff6,0xe7           data_ptr = TBLPTR;                                                         C:\MCC18\src\traditional\startup\c018i.c
001714   f0e7                                                                                                               
001716   cff7     MOVFF     0xff7,0xe8                                                                                      
001718   f0e8                                                                                                               
00171a   cff8     MOVFF     0xff8,0xe9                                                                                      
00171c   f0e9                                                                                                               
                                                                                                                            C:\MCC18\src\traditional\startup\c018i.c
                                                 /* now assign the source address to the table pointer */                   C:\MCC18\src\traditional\startup\c018i.c
00171e   c0e0     MOVFF     0xe0,0xff6           TBLPTR = prom;                                                             C:\MCC18\src\traditional\startup\c018i.c
001720   fff6                                                                                                               
001722   c0e1     MOVFF     0xe1,0xff7                                                                                      
001724   fff7                                                                                                               
001726   c0e2     MOVFF     0xe2,0xff8                                                                                      
001728   fff8                                                                                                               
                                                                                                                            C:\MCC18\src\traditional\startup\c018i.c
                                                 /* do the copy loop */                                                     C:\MCC18\src\traditional\startup\c018i.c
                                                 _asm                                                                       C:\MCC18\src\traditional\startup\c018i.c
                                                   // determine if we have any more bytes to copy                           C:\MCC18\src\traditional\startup\c018i.c
00172a   0100     MOVLB     0x0            	movlb curr_byte                                                                 C:\MCC18\src\traditional\startup\c018i.c
00172c   53e3     MOVF      0xe3,0x1,0x1   	movf curr_byte, 1, 1                                                            C:\MCC18\src\traditional\startup\c018i.c
                                           copy_loop:                                                                       C:\MCC18\src\traditional\startup\c018i.c
00172e   e102     BNZ       0x1734         	bnz 2 // copy_one_byte                                                          C:\MCC18\src\traditional\startup\c018i.c
001730   53e4     MOVF      0xe4,0x1,0x1   	movf curr_byte + 1, 1, 1                                                        C:\MCC18\src\traditional\startup\c018i.c
001732   e007     BZ        0x1742         	bz 7 // done_copying                                                            C:\MCC18\src\traditional\startup\c018i.c
                                                                                                                            C:\MCC18\src\traditional\startup\c018i.c
                                           copy_one_byte:                                                                   C:\MCC18\src\traditional\startup\c018i.c
001734   0009     TBLRDPOSTINC             	tblrdpostinc                                                                    C:\MCC18\src\traditional\startup\c018i.c
001736   50f5     MOVF      0xf5,0x0,0x0   	movf TABLAT, 0, 0                                                               C:\MCC18\src\traditional\startup\c018i.c
001738   6eee     MOVWF     0xee,0x0       	movwf POSTINC0, 0                                                               C:\MCC18\src\traditional\startup\c018i.c
                                                                                                                            C:\MCC18\src\traditional\startup\c018i.c
                                           	// decrement byte counter                                                       C:\MCC18\src\traditional\startup\c018i.c
00173a   07e3     DECF      0xe3,0x1,0x1   	decf curr_byte, 1, 1                                                            C:\MCC18\src\traditional\startup\c018i.c
00173c   e2f8     BC        0x172e         	bc -8 // copy_loop                                                              C:\MCC18\src\traditional\startup\c018i.c
00173e   07e4     DECF      0xe4,0x1,0x1           decf curr_byte + 1, 1, 1                                                 C:\MCC18\src\traditional\startup\c018i.c
001740   d7f9     BRA       0x1734         	bra -7 // copy_one_byte                                                         C:\MCC18\src\traditional\startup\c018i.c
                                                                                                                            C:\MCC18\src\traditional\startup\c018i.c
                                           done_copying:                                                                    C:\MCC18\src\traditional\startup\c018i.c
                                                                                                                            C:\MCC18\src\traditional\startup\c018i.c
                                                 _endasm                                                                    C:\MCC18\src\traditional\startup\c018i.c
                                                 /* restore the table pointer for the next entry */                         C:\MCC18\src\traditional\startup\c018i.c
001742   c0e7     MOVFF     0xe7,0xff6           TBLPTR = data_ptr;                                                         C:\MCC18\src\traditional\startup\c018i.c
001744   fff6                                                                                                               
001746   c0e8     MOVFF     0xe8,0xff7                                                                                      
001748   fff7                                                                                                               
00174a   c0e9     MOVFF     0xe9,0xff8                                                                                      
00174c   fff8                                                                                                               
                                                 /* next entry... */                                                        C:\MCC18\src\traditional\startup\c018i.c
00174e   0100     MOVLB     0x0                  curr_entry--;                                                              C:\MCC18\src\traditional\startup\c018i.c
001750   07e5     DECF      0xe5,0x1,0x1                                                                                    
001752   0e00     MOVLW     0x0                                                                                             
001754   5be6     SUBWFB    0xe6,0x1,0x1                                                                                    
001756   d7bf     BRA       0x16d6               goto test;                                                                 C:\MCC18\src\traditional\startup\c018i.c
                                           done:                                                                            C:\MCC18\src\traditional\startup\c018i.c
                                           ;                                                                                C:\MCC18\src\traditional\startup\c018i.c
001758   0012     RETURN    0x0            }                                                                                C:\MCC18\src\traditional\startup\c018i.c
                                           /** I N C L U D E S **********************************************************/  C:\3DAQ\firmware\main.c
                                           #include <p18cxxx.h>                                                             C:\3DAQ\firmware\main.c
                                           #include "system\typedefs.h"                        // Required                  C:\3DAQ\firmware\main.c
                                           #include "system\usb\usb.h"                         // Required                  C:\3DAQ\firmware\main.c
                                           #include "io_cfg.h"                                 // Required                  C:\3DAQ\firmware\main.c
                                                                                                                            C:\3DAQ\firmware\main.c
                                           #include "system\usb\usb_compile_time_validation.h" // Optional                  C:\3DAQ\firmware\main.c
                                           #include "user\user.h"                              // Modifiable                C:\3DAQ\firmware\main.c
                                                                                                                            C:\3DAQ\firmware\main.c
                                           /** V A R I A B L E S ********************************************************/  C:\3DAQ\firmware\main.c
                                           #pragma udata                                                                    C:\3DAQ\firmware\main.c
                                                                                                                            C:\3DAQ\firmware\main.c
                                           /** P R I V A T E  P R O T O T Y P E S ***************************************/  C:\3DAQ\firmware\main.c
                                           static void InitializeSystem(void);                                              C:\3DAQ\firmware\main.c
                                           void USBTasks(void);                                                             C:\3DAQ\firmware\main.c
                                                                                                                            C:\3DAQ\firmware\main.c
                                           /** V E C T O R  R E M A P P I N G *******************************************/  C:\3DAQ\firmware\main.c
                                                                                                                            C:\3DAQ\firmware\main.c
                                           extern void _startup (void);        // See c018i.c in your C18 compiler dir      C:\3DAQ\firmware\main.c
                                           #pragma code _RESET_INTERRUPT_VECTOR = 0x000800                                  C:\3DAQ\firmware\main.c
                                           void _reset (void)                                                               C:\3DAQ\firmware\main.c
                                           {                                                                                C:\3DAQ\firmware\main.c
000800   eff1     GOTO      0x17e2             _asm goto _startup _endasm                                                   C:\3DAQ\firmware\main.c
000802   f00b                                                                                                               
000804   0012     RETURN    0x0            }                                                                                C:\3DAQ\firmware\main.c
                                           #pragma code                                                                     C:\3DAQ\firmware\main.c
                                                                                                                            C:\3DAQ\firmware\main.c
                                           #pragma code _HIGH_INTERRUPT_VECTOR = 0x000808                                   C:\3DAQ\firmware\main.c
                                           void _high_ISR (void)                                                            C:\3DAQ\firmware\main.c
                                           {                                                                                C:\3DAQ\firmware\main.c
                                               ;                                                                            C:\3DAQ\firmware\main.c
000808   0012     RETURN    0x0            }                                                                                C:\3DAQ\firmware\main.c
                                                                                                                            C:\3DAQ\firmware\main.c
                                           #pragma code _LOW_INTERRUPT_VECTOR = 0x000818                                    C:\3DAQ\firmware\main.c
                                           void _low_ISR (void)                                                             C:\3DAQ\firmware\main.c
                                           {                                                                                C:\3DAQ\firmware\main.c
                                               ;                                                                            C:\3DAQ\firmware\main.c
000818   0012     RETURN    0x0            }                                                                                C:\3DAQ\firmware\main.c
                                           #pragma code                                                                     C:\3DAQ\firmware\main.c
                                                                                                                            C:\3DAQ\firmware\main.c
                                           /** D E C L A R A T I O N S **************************************************/  C:\3DAQ\firmware\main.c
                                           #pragma code                                                                     C:\3DAQ\firmware\main.c
                                           /******************************************************************************  C:\3DAQ\firmware\main.c
                                            * Function:        void main(void)                                              C:\3DAQ\firmware\main.c
                                            *                                                                               C:\3DAQ\firmware\main.c
                                            * PreCondition:    None                                                         C:\3DAQ\firmware\main.c
                                            *                                                                               C:\3DAQ\firmware\main.c
                                            * Input:           None                                                         C:\3DAQ\firmware\main.c
                                            *                                                                               C:\3DAQ\firmware\main.c
                                            * Output:          None                                                         C:\3DAQ\firmware\main.c
                                            *                                                                               C:\3DAQ\firmware\main.c
                                            * Side Effects:    None                                                         C:\3DAQ\firmware\main.c
                                            *                                                                               C:\3DAQ\firmware\main.c
                                            * Overview:        Main program entry point.                                    C:\3DAQ\firmware\main.c
                                            *                                                                               C:\3DAQ\firmware\main.c
                                            * Note:            None                                                         C:\3DAQ\firmware\main.c
                                            *****************************************************************************/  C:\3DAQ\firmware\main.c
                                           void main(void)                                                                  C:\3DAQ\firmware\main.c
                                           {                                                                                C:\3DAQ\firmware\main.c
0017b4   d805     RCALL     0x17c0             InitializeSystem();                                                          C:\3DAQ\firmware\main.c
0017bc   d7fc     BRA       0x17b6             while(1)                                                                     C:\3DAQ\firmware\main.c
                                               {                                                                            C:\3DAQ\firmware\main.c
0017b6   d80e     RCALL     0x17d4                 USBTasks();         // USB Tasks                                         C:\3DAQ\firmware\main.c
                                           		//UCAM                                                                         C:\3DAQ\firmware\main.c
0017b8   ec1c     CALL      0x838,0x0              ProcessIO();        // See user\user.c & .h                              C:\3DAQ\firmware\main.c
0017ba   f004                                                                                                               
                                           		                                                                               C:\3DAQ\firmware\main.c
                                               }//end while                                                                 C:\3DAQ\firmware\main.c
0017be   0012     RETURN    0x0            }//end main                                                                      C:\3DAQ\firmware\main.c
                                                                                                                            C:\3DAQ\firmware\main.c
                                                                                                                            C:\3DAQ\firmware\main.c
                                                                                                                            C:\3DAQ\firmware\main.c
                                                                                                                            C:\3DAQ\firmware\main.c
                                           /******************************************************************************  C:\3DAQ\firmware\main.c
                                            * Function:        static void InitializeSystem(void)                           C:\3DAQ\firmware\main.c
                                            *                                                                               C:\3DAQ\firmware\main.c
                                            * PreCondition:    None                                                         C:\3DAQ\firmware\main.c
                                            *                                                                               C:\3DAQ\firmware\main.c
                                            * Input:           None                                                         C:\3DAQ\firmware\main.c
                                            *                                                                               C:\3DAQ\firmware\main.c
                                            * Output:          None                                                         C:\3DAQ\firmware\main.c
                                            *                                                                               C:\3DAQ\firmware\main.c
                                            * Side Effects:    None                                                         C:\3DAQ\firmware\main.c
                                            *                                                                               C:\3DAQ\firmware\main.c
                                            * Overview:        InitializeSystem is a centralize initialization routine.     C:\3DAQ\firmware\main.c
                                            *                  All required USB initialization routines are called from     C:\3DAQ\firmware\main.c
                                            *                  here.                                                        C:\3DAQ\firmware\main.c
                                            *                                                                               C:\3DAQ\firmware\main.c
                                            *                  User application initialization routine should also be       C:\3DAQ\firmware\main.c
                                            *                  called from here.                                            C:\3DAQ\firmware\main.c
                                            *                                                                               C:\3DAQ\firmware\main.c
                                            * Note:            None                                                         C:\3DAQ\firmware\main.c
                                            *****************************************************************************/  C:\3DAQ\firmware\main.c
                                           static void InitializeSystem(void)                                               C:\3DAQ\firmware\main.c
                                           {                                                                                C:\3DAQ\firmware\main.c
                                                                                                                            C:\3DAQ\firmware\main.c
                                               #if defined(USE_USB_BUS_SENSE_IO)                                            C:\3DAQ\firmware\main.c
                                               tris_usb_bus_sense = INPUT_PIN; // See io_cfg.h                              C:\3DAQ\firmware\main.c
                                               #endif                                                                       C:\3DAQ\firmware\main.c
                                                                                                                            C:\3DAQ\firmware\main.c
                                               #if defined(USE_SELF_POWER_SENSE_IO)                                         C:\3DAQ\firmware\main.c
                                               tris_self_power = INPUT_PIN;                                                 C:\3DAQ\firmware\main.c
                                               #endif                                                                       C:\3DAQ\firmware\main.c
                                                                                                                            C:\3DAQ\firmware\main.c
0017c0   0e14     MOVLW     0x14               mInitializeUSBDriver();         // See usbdrv.h                              C:\3DAQ\firmware\main.c
0017c2   6e6f     MOVWF     0x6f,0x0                                                                                        
0017c4   0100     MOVLB     0x0                                                                                             
0017c6   6bf2     CLRF      0xf2,0x1                                                                                        
0017c8   0100     MOVLB     0x0                                                                                             
0017ca   6bf3     CLRF      0xf3,0x1                                                                                        
0017cc   0100     MOVLB     0x0                                                                                             
0017ce   6bf4     CLRF      0xf4,0x1                                                                                        
                                                                                                                            C:\3DAQ\firmware\main.c
0017d0   efd2     GOTO      0xda4              UserInit();                     // See user.c & .h                           C:\3DAQ\firmware\main.c
0017d2   f006                                                                                                               
                                                                                                                            C:\3DAQ\firmware\main.c
                                           }//end InitializeSystem                                                          C:\3DAQ\firmware\main.c
                                                                                                                            C:\3DAQ\firmware\main.c
                                           /******************************************************************************  C:\3DAQ\firmware\main.c
                                            * Function:        void USBTasks(void)                                          C:\3DAQ\firmware\main.c
                                            *                                                                               C:\3DAQ\firmware\main.c
                                            * PreCondition:    InitializeSystem has been called.                            C:\3DAQ\firmware\main.c
                                            *                                                                               C:\3DAQ\firmware\main.c
                                            * Input:           None                                                         C:\3DAQ\firmware\main.c
                                            *                                                                               C:\3DAQ\firmware\main.c
                                            * Output:          None                                                         C:\3DAQ\firmware\main.c
                                            *                                                                               C:\3DAQ\firmware\main.c
                                            * Side Effects:    None                                                         C:\3DAQ\firmware\main.c
                                            *                                                                               C:\3DAQ\firmware\main.c
                                            * Overview:        Service loop for USB tasks.                                  C:\3DAQ\firmware\main.c
                                            *                                                                               C:\3DAQ\firmware\main.c
                                            * Note:            None                                                         C:\3DAQ\firmware\main.c
                                            *****************************************************************************/  C:\3DAQ\firmware\main.c
                                           void USBTasks(void)                                                              C:\3DAQ\firmware\main.c
                                           {                                                                                C:\3DAQ\firmware\main.c
                                               /*                                                                           C:\3DAQ\firmware\main.c
                                                * Servicing Hardware                                                        C:\3DAQ\firmware\main.c
                                                */                                                                          C:\3DAQ\firmware\main.c
0017d4   ecbc     CALL      0x1378,0x0         USBCheckBusStatus();                    // Must use polling method           C:\3DAQ\firmware\main.c
0017d6   f009                                                                                                               
0017d8   be6f     BTFSC     0x6f,0x7,0x0       if(UCFGbits.UTEYE!=1)                                                        C:\3DAQ\firmware\main.c
0017da   d002     BRA       0x17e0                                                                                          
                                           	{                                                                               C:\3DAQ\firmware\main.c
0017dc   ecd8     CALL      0x13b0,0x0             USBDriverService();                 // Interrupt or polling method       C:\3DAQ\firmware\main.c
0017de   f009                                                                                                               
                                           	}//end if                                                                       C:\3DAQ\firmware\main.c
                                                                                                                            C:\3DAQ\firmware\main.c
0017e0   0012     RETURN    0x0            }// end USBTasks                                                                 C:\3DAQ\firmware\main.c
                                                                                                                            C:\3DAQ\firmware\main.c
                                           /** EOF main.c ***************************************************************/  C:\3DAQ\firmware\main.c
                                           /*********************************************************************           C:\3DAQ\firmware\system\usb\usbmmap.c
                                            *                                                                               C:\3DAQ\firmware\system\usb\usbmmap.c
                                            *                Microchip USB C18 Firmware Version 1.0                         C:\3DAQ\firmware\system\usb\usbmmap.c
                                            *                                                                               C:\3DAQ\firmware\system\usb\usbmmap.c
                                            *********************************************************************           C:\3DAQ\firmware\system\usb\usbmmap.c
                                            * FileName:        usbmmap.c                                                    C:\3DAQ\firmware\system\usb\usbmmap.c
                                            * Dependencies:    See INCLUDES section below                                   C:\3DAQ\firmware\system\usb\usbmmap.c
                                            * Processor:       PIC18                                                        C:\3DAQ\firmware\system\usb\usbmmap.c
                                            * Compiler:        C18 2.30.01+                                                 C:\3DAQ\firmware\system\usb\usbmmap.c
                                            * Company:         Microchip Technology, Inc.                                   C:\3DAQ\firmware\system\usb\usbmmap.c
                                            *                                                                               C:\3DAQ\firmware\system\usb\usbmmap.c
                                            * Software License Agreement                                                    C:\3DAQ\firmware\system\usb\usbmmap.c
                                            *                                                                               C:\3DAQ\firmware\system\usb\usbmmap.c
                                            * The software supplied herewith by Microchip Technology Incorporated           C:\3DAQ\firmware\system\usb\usbmmap.c
                                            * (the Company) for its PICmicro Microcontroller is intended and             C:\3DAQ\firmware\system\usb\usbmmap.c
                                            * supplied to you, the Companys customer, for use solely and                   C:\3DAQ\firmware\system\usb\usbmmap.c
                                            * exclusively on Microchip PICmicro Microcontroller products. The               C:\3DAQ\firmware\system\usb\usbmmap.c
                                            * software is owned by the Company and/or its supplier, and is                  C:\3DAQ\firmware\system\usb\usbmmap.c
                                            * protected under applicable copyright laws. All rights are reserved.           C:\3DAQ\firmware\system\usb\usbmmap.c
                                            * Any use in violation of the foregoing restrictions may subject the            C:\3DAQ\firmware\system\usb\usbmmap.c
                                            * user to criminal sanctions under applicable laws, as well as to               C:\3DAQ\firmware\system\usb\usbmmap.c
                                            * civil liability for the breach of the terms and conditions of this            C:\3DAQ\firmware\system\usb\usbmmap.c
                                            * license.                                                                      C:\3DAQ\firmware\system\usb\usbmmap.c
                                            *                                                                               C:\3DAQ\firmware\system\usb\usbmmap.c
                                            * THIS SOFTWARE IS PROVIDED IN AN AS IS CONDITION. NO WARRANTIES,             C:\3DAQ\firmware\system\usb\usbmmap.c
                                            * WHETHER EXPRESS, IMPLIED OR STATUTORY, INCLUDING, BUT NOT LIMITED             C:\3DAQ\firmware\system\usb\usbmmap.c
                                            * TO, IMPLIED WARRANTIES OF MERCHANTABILITY AND FITNESS FOR A                   C:\3DAQ\firmware\system\usb\usbmmap.c
                                            * PARTICULAR PURPOSE APPLY TO THIS SOFTWARE. THE COMPANY SHALL NOT,             C:\3DAQ\firmware\system\usb\usbmmap.c
                                            * IN ANY CIRCUMSTANCES, BE LIABLE FOR SPECIAL, INCIDENTAL OR                    C:\3DAQ\firmware\system\usb\usbmmap.c
                                            * CONSEQUENTIAL DAMAGES, FOR ANY REASON WHATSOEVER.                             C:\3DAQ\firmware\system\usb\usbmmap.c
                                            *                                                                               C:\3DAQ\firmware\system\usb\usbmmap.c
                                            * Author               Date        Comment                                      C:\3DAQ\firmware\system\usb\usbmmap.c
                                            *~~~~~~~~~~~~~~~~~~~~~~~~~~~~~~~~~~~~~~~~~~~~~~~~~~~~~~~~~~~~~~~~~~~~           C:\3DAQ\firmware\system\usb\usbmmap.c
                                            * Rawin Rojvanit       11/19/04    Original.                                    C:\3DAQ\firmware\system\usb\usbmmap.c
                                            ********************************************************************/           C:\3DAQ\firmware\system\usb\usbmmap.c
                                                                                                                            C:\3DAQ\firmware\system\usb\usbmmap.c
                                           /******************************************************************************  C:\3DAQ\firmware\system\usb\usbmmap.c
                                            * -usbmmap.c-                                                                   C:\3DAQ\firmware\system\usb\usbmmap.c
                                            * USB Memory Map                                                                C:\3DAQ\firmware\system\usb\usbmmap.c
                                            * This file is the USB memory manager; it serves as a compile-time memory       C:\3DAQ\firmware\system\usb\usbmmap.c
                                            * allocator for the USB endpoints. It uses the compile time options passed      C:\3DAQ\firmware\system\usb\usbmmap.c
                                            * from usbcfg.h to instantiate endpoints and endpoint buffer.                   C:\3DAQ\firmware\system\usb\usbmmap.c
                                            *                                                                               C:\3DAQ\firmware\system\usb\usbmmap.c
                                            * Each endpoint requires to have a set of Buffer Descriptor registers(BDT).     C:\3DAQ\firmware\system\usb\usbmmap.c
                                            * A BDT is 4-byte long and has a specific RAM location for each endpoint.       C:\3DAQ\firmware\system\usb\usbmmap.c
                                            * The BDT for endpoint 0 out is located at address 0x400 to 0x403.              C:\3DAQ\firmware\system\usb\usbmmap.c
                                            * The BDT for endpoint 0 in is located at address 0x404 to 0x407.               C:\3DAQ\firmware\system\usb\usbmmap.c
                                            * The BDT for endpoint 1 out is located at address 0x408 to 0x40B.              C:\3DAQ\firmware\system\usb\usbmmap.c
                                            * and so on... The above allocation assumes the Ping-Pong Buffer Mode 0 is      C:\3DAQ\firmware\system\usb\usbmmap.c
                                            * used. These locations are already hard-wired in the silicon. The point        C:\3DAQ\firmware\system\usb\usbmmap.c
                                            * of doing instantiation, i.e. volatile far BDT ep0Bo;, is to provide the       C:\3DAQ\firmware\system\usb\usbmmap.c
                                            * C compiler a way to address each variable directly. This is very important    C:\3DAQ\firmware\system\usb\usbmmap.c
                                            * because when a register can be accessed directly, it saves execution time     C:\3DAQ\firmware\system\usb\usbmmap.c
                                            * and reduces program size.                                                     C:\3DAQ\firmware\system\usb\usbmmap.c
                                            *                                                                               C:\3DAQ\firmware\system\usb\usbmmap.c
                                            * Endpoints are defined using the endpoint number and the direction             C:\3DAQ\firmware\system\usb\usbmmap.c
                                            * of transfer. For simplicity, usbmmap.c only uses the endpoint number          C:\3DAQ\firmware\system\usb\usbmmap.c
                                            * in the BDT register allocation scheme. This means if the usbcfg.h states      C:\3DAQ\firmware\system\usb\usbmmap.c
                                            * that the MAX_EP_NUMBER is number 1, then four BDTs will be                    C:\3DAQ\firmware\system\usb\usbmmap.c
                                            * instantiated: one each for endpoint0 in and endpoint0 out, which must         C:\3DAQ\firmware\system\usb\usbmmap.c
                                            * always be instantiated for control transfer by default, and one each sets     C:\3DAQ\firmware\system\usb\usbmmap.c
                                            * for endpoint1 in and endpoint1 out. The naming convention for instantiating   C:\3DAQ\firmware\system\usb\usbmmap.c
                                            * BDT is                                                                        C:\3DAQ\firmware\system\usb\usbmmap.c
                                            *                                                                               C:\3DAQ\firmware\system\usb\usbmmap.c
                                            * ep<#>B<d>                                                                     C:\3DAQ\firmware\system\usb\usbmmap.c
                                            *                                                                               C:\3DAQ\firmware\system\usb\usbmmap.c
                                            * where # is the endpoint number, and d is the direction of                     C:\3DAQ\firmware\system\usb\usbmmap.c
                                            * transfer, which could be either <i> or <o>.                                   C:\3DAQ\firmware\system\usb\usbmmap.c
                                            *                                                                               C:\3DAQ\firmware\system\usb\usbmmap.c
                                            * The USB memory manager uses MAX_EP_NUMBER, as defined in usbcfg.h, to define  C:\3DAQ\firmware\system\usb\usbmmap.c
                                            * the endpoints to be instantiated. This represents the highest endpoint        C:\3DAQ\firmware\system\usb\usbmmap.c
                                            * number to be allocated, not how many endpoints are used. Since the BDTs for   C:\3DAQ\firmware\system\usb\usbmmap.c
                                            * endpoints have hardware-assigned addresses in Bank 4, setting this value too  C:\3DAQ\firmware\system\usb\usbmmap.c
                                            * high may lead to inefficient use of data RAM. For example, if an application  C:\3DAQ\firmware\system\usb\usbmmap.c
                                            * uses only endpoints EP0 and EP4, then the MAX_EP_NUMBER is 4, and not 2.      C:\3DAQ\firmware\system\usb\usbmmap.c
                                            * The in-between endpoint BDTs in this example (EP1, EP2, and EP3) go unused,   C:\3DAQ\firmware\system\usb\usbmmap.c
                                            * and the 24 bytes of memory associated with them are wasted. It does not make  C:\3DAQ\firmware\system\usb\usbmmap.c
                                            * much sense to skip endpoints, but the final decision lies with the user.      C:\3DAQ\firmware\system\usb\usbmmap.c
                                            *                                                                               C:\3DAQ\firmware\system\usb\usbmmap.c
                                            * The next step is to assign the instantiated BDTs to different                 C:\3DAQ\firmware\system\usb\usbmmap.c
                                            * USB functions. The firmware framework fundamentally assumes that every USB    C:\3DAQ\firmware\system\usb\usbmmap.c
                                            * function should know which endpoint it is using, i.e., the default control    C:\3DAQ\firmware\system\usb\usbmmap.c
                                            * transfer should know that it is using endpoint 0 in and endpoint 0 out.       C:\3DAQ\firmware\system\usb\usbmmap.c
                                            * A HID class can choose which endpoint it wants to use, but once chosen, it    C:\3DAQ\firmware\system\usb\usbmmap.c
                                            * should always know the number of the endpoint.                                C:\3DAQ\firmware\system\usb\usbmmap.c
                                            *                                                                               C:\3DAQ\firmware\system\usb\usbmmap.c
                                            * The assignment of endpoints to USB functions is managed centrally             C:\3DAQ\firmware\system\usb\usbmmap.c
                                            * in usbcfg.h. This helps prevent the mistake of having more                    C:\3DAQ\firmware\system\usb\usbmmap.c
                                            * than one USB function using the same endpoint. The "Endpoint Allocation"      C:\3DAQ\firmware\system\usb\usbmmap.c
                                            * section in usbcfg.h provides examples for how to map USB endpoints to USB     C:\3DAQ\firmware\system\usb\usbmmap.c
                                            * functions.                                                                    C:\3DAQ\firmware\system\usb\usbmmap.c
                                            * Quite a few things can be mapped in that section. There is no                 C:\3DAQ\firmware\system\usb\usbmmap.c
                                            * one correct way to do the mapping and the user has the choice to              C:\3DAQ\firmware\system\usb\usbmmap.c
                                            * choose a method that is most suitable to the application.                     C:\3DAQ\firmware\system\usb\usbmmap.c
                                            *                                                                               C:\3DAQ\firmware\system\usb\usbmmap.c
                                            * Typically, however, a user will want to map the following for a given         C:\3DAQ\firmware\system\usb\usbmmap.c
                                            * USB interface function:                                                       C:\3DAQ\firmware\system\usb\usbmmap.c
                                            * 1. The USB interface ID                                                       C:\3DAQ\firmware\system\usb\usbmmap.c
                                            * 2. The endpoint control registers (UEPn)                                      C:\3DAQ\firmware\system\usb\usbmmap.c
                                            * 3. The BDT registers (ep<#>B<d>)                                              C:\3DAQ\firmware\system\usb\usbmmap.c
                                            * 4. The endpoint size                                                          C:\3DAQ\firmware\system\usb\usbmmap.c
                                            *                                                                               C:\3DAQ\firmware\system\usb\usbmmap.c
                                            * Example: Assume a USB device class "foo", which uses one out endpoint         C:\3DAQ\firmware\system\usb\usbmmap.c
                                            *          of size 64-byte and one in endpoint of size 64-byte, then:           C:\3DAQ\firmware\system\usb\usbmmap.c
                                            *                                                                               C:\3DAQ\firmware\system\usb\usbmmap.c
                                            * #define FOO_INTF_ID          0x00                                             C:\3DAQ\firmware\system\usb\usbmmap.c
                                            * #define FOO_UEP              UEP1                                             C:\3DAQ\firmware\system\usb\usbmmap.c
                                            * #define FOO_BD_OUT           ep1Bo                                            C:\3DAQ\firmware\system\usb\usbmmap.c
                                            * #define FOO_BD_IN            ep1Bi                                            C:\3DAQ\firmware\system\usb\usbmmap.c
                                            * #define FOO_EP_SIZE          64                                               C:\3DAQ\firmware\system\usb\usbmmap.c
                                            *                                                                               C:\3DAQ\firmware\system\usb\usbmmap.c
                                            * The mapping above has chosen class "foo" to use endpoint 1.                   C:\3DAQ\firmware\system\usb\usbmmap.c
                                            * The names are arbitrary and can be anything other than FOO_??????.            C:\3DAQ\firmware\system\usb\usbmmap.c
                                            * For abstraction, the code for class "foo" should use the abstract             C:\3DAQ\firmware\system\usb\usbmmap.c
                                            * definitions of FOO_BD_OUT,FOO_BD_IN, and not ep1Bo or ep1Bi.                  C:\3DAQ\firmware\system\usb\usbmmap.c
                                            *                                                                               C:\3DAQ\firmware\system\usb\usbmmap.c
                                            * Note that the endpoint size defined in the usbcfg.h file is again             C:\3DAQ\firmware\system\usb\usbmmap.c
                                            * used in the usbmmap.c file. This shows that the relationship between          C:\3DAQ\firmware\system\usb\usbmmap.c
                                            * the two files are tightly related.                                            C:\3DAQ\firmware\system\usb\usbmmap.c
                                            *                                                                               C:\3DAQ\firmware\system\usb\usbmmap.c
                                            * The endpoint buffer for each USB function must be located in the              C:\3DAQ\firmware\system\usb\usbmmap.c
                                            * dual-port RAM area and has to come after all the BDTs have been               C:\3DAQ\firmware\system\usb\usbmmap.c
                                            * instantiated. An example declaration is:                                      C:\3DAQ\firmware\system\usb\usbmmap.c
                                            * volatile far unsigned char[FOO_EP_SIZE] data;                                 C:\3DAQ\firmware\system\usb\usbmmap.c
                                            *                                                                               C:\3DAQ\firmware\system\usb\usbmmap.c
                                            * The 'volatile' keyword tells the compiler not to perform any code             C:\3DAQ\firmware\system\usb\usbmmap.c
                                            * optimization on this variable because its content could be modified           C:\3DAQ\firmware\system\usb\usbmmap.c
                                            * by the hardware. The 'far' keyword tells the compiler that this variable      C:\3DAQ\firmware\system\usb\usbmmap.c
                                            * is not located in the Access RAM area (0x000 - 0x05F).                        C:\3DAQ\firmware\system\usb\usbmmap.c
                                            *                                                                               C:\3DAQ\firmware\system\usb\usbmmap.c
                                            * For the variable to be globally accessible by other files, it should be       C:\3DAQ\firmware\system\usb\usbmmap.c
                                            * declared in the header file usbmmap.h as an extern definition, such as        C:\3DAQ\firmware\system\usb\usbmmap.c
                                            * extern volatile far unsigned char[FOO_EP_SIZE] data;                          C:\3DAQ\firmware\system\usb\usbmmap.c
                                            *                                                                               C:\3DAQ\firmware\system\usb\usbmmap.c
                                            * Conclusion:                                                                   C:\3DAQ\firmware\system\usb\usbmmap.c
                                            * In a short summary, the dependencies between usbcfg and usbmmap can           C:\3DAQ\firmware\system\usb\usbmmap.c
                                            * be shown as:                                                                  C:\3DAQ\firmware\system\usb\usbmmap.c
                                            *                                                                               C:\3DAQ\firmware\system\usb\usbmmap.c
                                            * usbcfg[MAX_EP_NUMBER] -> usbmmap                                              C:\3DAQ\firmware\system\usb\usbmmap.c
                                            * usbmmap[ep<#>B<d>] -> usbcfg                                                  C:\3DAQ\firmware\system\usb\usbmmap.c
                                            * usbcfg[EP size] -> usbmmap                                                    C:\3DAQ\firmware\system\usb\usbmmap.c
                                            * usbcfg[abstract ep definitions] -> usb9/hid/cdc/etc class code                C:\3DAQ\firmware\system\usb\usbmmap.c
                                            * usbmmap[endpoint buffer variable] -> usb9/hid/cdc/etc class code              C:\3DAQ\firmware\system\usb\usbmmap.c
                                            *                                                                               C:\3DAQ\firmware\system\usb\usbmmap.c
                                            * Data mapping provides a means for direct addressing of BDT and endpoint       C:\3DAQ\firmware\system\usb\usbmmap.c
                                            * buffer. This means less usage of pointers, which equates to a faster and      C:\3DAQ\firmware\system\usb\usbmmap.c
                                            * smaller program code.                                                         C:\3DAQ\firmware\system\usb\usbmmap.c
                                            *                                                                               C:\3DAQ\firmware\system\usb\usbmmap.c
                                            *****************************************************************************/  C:\3DAQ\firmware\system\usb\usbmmap.c
                                                                                                                            C:\3DAQ\firmware\system\usb\usbmmap.c
                                           /** I N C L U D E S **********************************************************/  C:\3DAQ\firmware\system\usb\usbmmap.c
                                           #include "system\typedefs.h"                                                     C:\3DAQ\firmware\system\usb\usbmmap.c
                                           #include "system\usb\usb.h"                                                      C:\3DAQ\firmware\system\usb\usbmmap.c
                                                                                                                            C:\3DAQ\firmware\system\usb\usbmmap.c
                                           /** U S B  G L O B A L  V A R I A B L E S ************************************/  C:\3DAQ\firmware\system\usb\usbmmap.c
                                           #pragma udata                                                                    C:\3DAQ\firmware\system\usb\usbmmap.c
                                           byte usb_device_state;          // Device States: DETACHED, ATTACHED, ...        C:\3DAQ\firmware\system\usb\usbmmap.c
                                           USB_DEVICE_STATUS usb_stat;     // Global USB flags                              C:\3DAQ\firmware\system\usb\usbmmap.c
                                           byte usb_active_cfg;            // Value of current configuration                C:\3DAQ\firmware\system\usb\usbmmap.c
                                           byte usb_alt_intf[MAX_NUM_INT]; // Array to keep track of the current alternate  C:\3DAQ\firmware\system\usb\usbmmap.c
                                                                           // setting for each interface ID                 C:\3DAQ\firmware\system\usb\usbmmap.c
                                                                                                                            C:\3DAQ\firmware\system\usb\usbmmap.c
                                           /** U S B  F I X E D  L O C A T I O N  V A R I A B L E S *********************/  C:\3DAQ\firmware\system\usb\usbmmap.c
                                           #pragma udata usbram4=0x400     //See Linker Script,usb4:0x400-0x4FF(256-byte)   C:\3DAQ\firmware\system\usb\usbmmap.c
                                                                                                                            C:\3DAQ\firmware\system\usb\usbmmap.c
                                           /******************************************************************************  C:\3DAQ\firmware\system\usb\usbmmap.c
                                            * Section A: Buffer Descriptor Table                                            C:\3DAQ\firmware\system\usb\usbmmap.c
                                            * - 0x400 - 0x4FF(max)                                                          C:\3DAQ\firmware\system\usb\usbmmap.c
                                            * - MAX_EP_NUMBER is defined in autofiles\usbcfg.h                              C:\3DAQ\firmware\system\usb\usbmmap.c
                                            * - BDT data type is defined in system\usb\usbmmap.h                            C:\3DAQ\firmware\system\usb\usbmmap.c
                                            *****************************************************************************/  C:\3DAQ\firmware\system\usb\usbmmap.c
                                                                                                                            C:\3DAQ\firmware\system\usb\usbmmap.c
                                           #if(0 <= MAX_EP_NUMBER)                                                          C:\3DAQ\firmware\system\usb\usbmmap.c
                                           volatile far BDT ep0Bo;         //Endpoint #0 BD Out                             C:\3DAQ\firmware\system\usb\usbmmap.c
                                           volatile far BDT ep0Bi;         //Endpoint #0 BD In                              C:\3DAQ\firmware\system\usb\usbmmap.c
                                           #endif                                                                           C:\3DAQ\firmware\system\usb\usbmmap.c
                                                                                                                            C:\3DAQ\firmware\system\usb\usbmmap.c
                                           #if(1 <= MAX_EP_NUMBER)                                                          C:\3DAQ\firmware\system\usb\usbmmap.c
                                           volatile far BDT ep1Bo;         //Endpoint #1 BD Out                             C:\3DAQ\firmware\system\usb\usbmmap.c
                                           volatile far BDT ep1Bi;         //Endpoint #1 BD In                              C:\3DAQ\firmware\system\usb\usbmmap.c
                                           #endif                                                                           C:\3DAQ\firmware\system\usb\usbmmap.c
                                                                                                                            C:\3DAQ\firmware\system\usb\usbmmap.c
                                           #if(2 <= MAX_EP_NUMBER)                                                          C:\3DAQ\firmware\system\usb\usbmmap.c
                                           volatile far BDT ep2Bo;         //Endpoint #2 BD Out                             C:\3DAQ\firmware\system\usb\usbmmap.c
                                           volatile far BDT ep2Bi;         //Endpoint #2 BD In                              C:\3DAQ\firmware\system\usb\usbmmap.c
                                           #endif                                                                           C:\3DAQ\firmware\system\usb\usbmmap.c
                                                                                                                            C:\3DAQ\firmware\system\usb\usbmmap.c
                                           #if(3 <= MAX_EP_NUMBER)                                                          C:\3DAQ\firmware\system\usb\usbmmap.c
                                           volatile far BDT ep3Bo;         //Endpoint #3 BD Out                             C:\3DAQ\firmware\system\usb\usbmmap.c
                                           volatile far BDT ep3Bi;         //Endpoint #3 BD In                              C:\3DAQ\firmware\system\usb\usbmmap.c
                                           #endif                                                                           C:\3DAQ\firmware\system\usb\usbmmap.c
                                                                                                                            C:\3DAQ\firmware\system\usb\usbmmap.c
                                           #if(4 <= MAX_EP_NUMBER)                                                          C:\3DAQ\firmware\system\usb\usbmmap.c
                                           volatile far BDT ep4Bo;         //Endpoint #4 BD Out                             C:\3DAQ\firmware\system\usb\usbmmap.c
                                           volatile far BDT ep4Bi;         //Endpoint #4 BD In                              C:\3DAQ\firmware\system\usb\usbmmap.c
                                           #endif                                                                           C:\3DAQ\firmware\system\usb\usbmmap.c
                                                                                                                            C:\3DAQ\firmware\system\usb\usbmmap.c
                                           #if(5 <= MAX_EP_NUMBER)                                                          C:\3DAQ\firmware\system\usb\usbmmap.c
                                           volatile far BDT ep5Bo;         //Endpoint #5 BD Out                             C:\3DAQ\firmware\system\usb\usbmmap.c
                                           volatile far BDT ep5Bi;         //Endpoint #5 BD In                              C:\3DAQ\firmware\system\usb\usbmmap.c
                                           #endif                                                                           C:\3DAQ\firmware\system\usb\usbmmap.c
                                                                                                                            C:\3DAQ\firmware\system\usb\usbmmap.c
                                           #if(6 <= MAX_EP_NUMBER)                                                          C:\3DAQ\firmware\system\usb\usbmmap.c
                                           volatile far BDT ep6Bo;         //Endpoint #6 BD Out                             C:\3DAQ\firmware\system\usb\usbmmap.c
                                           volatile far BDT ep6Bi;         //Endpoint #6 BD In                              C:\3DAQ\firmware\system\usb\usbmmap.c
                                           #endif                                                                           C:\3DAQ\firmware\system\usb\usbmmap.c
                                                                                                                            C:\3DAQ\firmware\system\usb\usbmmap.c
                                           #if(7 <= MAX_EP_NUMBER)                                                          C:\3DAQ\firmware\system\usb\usbmmap.c
                                           volatile far BDT ep7Bo;         //Endpoint #7 BD Out                             C:\3DAQ\firmware\system\usb\usbmmap.c
                                           volatile far BDT ep7Bi;         //Endpoint #7 BD In                              C:\3DAQ\firmware\system\usb\usbmmap.c
                                           #endif                                                                           C:\3DAQ\firmware\system\usb\usbmmap.c
                                                                                                                            C:\3DAQ\firmware\system\usb\usbmmap.c
                                           #if(8 <= MAX_EP_NUMBER)                                                          C:\3DAQ\firmware\system\usb\usbmmap.c
                                           volatile far BDT ep8Bo;         //Endpoint #8 BD Out                             C:\3DAQ\firmware\system\usb\usbmmap.c
                                           volatile far BDT ep8Bi;         //Endpoint #8 BD In                              C:\3DAQ\firmware\system\usb\usbmmap.c
                                           #endif                                                                           C:\3DAQ\firmware\system\usb\usbmmap.c
                                                                                                                            C:\3DAQ\firmware\system\usb\usbmmap.c
                                           #if(9 <= MAX_EP_NUMBER)                                                          C:\3DAQ\firmware\system\usb\usbmmap.c
                                           volatile far BDT ep9Bo;         //Endpoint #9 BD Out                             C:\3DAQ\firmware\system\usb\usbmmap.c
                                           volatile far BDT ep9Bi;         //Endpoint #9 BD In                              C:\3DAQ\firmware\system\usb\usbmmap.c
                                           #endif                                                                           C:\3DAQ\firmware\system\usb\usbmmap.c
                                                                                                                            C:\3DAQ\firmware\system\usb\usbmmap.c
                                           #if(10 <= MAX_EP_NUMBER)                                                         C:\3DAQ\firmware\system\usb\usbmmap.c
                                           volatile far BDT ep10Bo;        //Endpoint #10 BD Out                            C:\3DAQ\firmware\system\usb\usbmmap.c
                                           volatile far BDT ep10Bi;        //Endpoint #10 BD In                             C:\3DAQ\firmware\system\usb\usbmmap.c
                                           #endif                                                                           C:\3DAQ\firmware\system\usb\usbmmap.c
                                                                                                                            C:\3DAQ\firmware\system\usb\usbmmap.c
                                           #if(11 <= MAX_EP_NUMBER)                                                         C:\3DAQ\firmware\system\usb\usbmmap.c
                                           volatile far BDT ep11Bo;        //Endpoint #11 BD Out                            C:\3DAQ\firmware\system\usb\usbmmap.c
                                           volatile far BDT ep11Bi;        //Endpoint #11 BD In                             C:\3DAQ\firmware\system\usb\usbmmap.c
                                           #endif                                                                           C:\3DAQ\firmware\system\usb\usbmmap.c
                                                                                                                            C:\3DAQ\firmware\system\usb\usbmmap.c
                                           #if(12 <= MAX_EP_NUMBER)                                                         C:\3DAQ\firmware\system\usb\usbmmap.c
                                           volatile far BDT ep12Bo;        //Endpoint #12 BD Out                            C:\3DAQ\firmware\system\usb\usbmmap.c
                                           volatile far BDT ep12Bi;        //Endpoint #12 BD In                             C:\3DAQ\firmware\system\usb\usbmmap.c
                                           #endif                                                                           C:\3DAQ\firmware\system\usb\usbmmap.c
                                                                                                                            C:\3DAQ\firmware\system\usb\usbmmap.c
                                           #if(13 <= MAX_EP_NUMBER)                                                         C:\3DAQ\firmware\system\usb\usbmmap.c
                                           volatile far BDT ep13Bo;        //Endpoint #13 BD Out                            C:\3DAQ\firmware\system\usb\usbmmap.c
                                           volatile far BDT ep13Bi;        //Endpoint #13 BD In                             C:\3DAQ\firmware\system\usb\usbmmap.c
                                           #endif                                                                           C:\3DAQ\firmware\system\usb\usbmmap.c
                                                                                                                            C:\3DAQ\firmware\system\usb\usbmmap.c
                                           #if(14 <= MAX_EP_NUMBER)                                                         C:\3DAQ\firmware\system\usb\usbmmap.c
                                           volatile far BDT ep14Bo;        //Endpoint #14 BD Out                            C:\3DAQ\firmware\system\usb\usbmmap.c
                                           volatile far BDT ep14Bi;        //Endpoint #14 BD In                             C:\3DAQ\firmware\system\usb\usbmmap.c
                                           #endif                                                                           C:\3DAQ\firmware\system\usb\usbmmap.c
                                                                                                                            C:\3DAQ\firmware\system\usb\usbmmap.c
                                           #if(15 <= MAX_EP_NUMBER)                                                         C:\3DAQ\firmware\system\usb\usbmmap.c
                                           volatile far BDT ep15Bo;        //Endpoint #15 BD Out                            C:\3DAQ\firmware\system\usb\usbmmap.c
                                           volatile far BDT ep15Bi;        //Endpoint #15 BD In                             C:\3DAQ\firmware\system\usb\usbmmap.c
                                           #endif                                                                           C:\3DAQ\firmware\system\usb\usbmmap.c
                                                                                                                            C:\3DAQ\firmware\system\usb\usbmmap.c
                                           /******************************************************************************  C:\3DAQ\firmware\system\usb\usbmmap.c
                                            * Section B: EP0 Buffer Space                                                   C:\3DAQ\firmware\system\usb\usbmmap.c
                                            ******************************************************************************  C:\3DAQ\firmware\system\usb\usbmmap.c
                                            * - Two buffer areas are defined:                                               C:\3DAQ\firmware\system\usb\usbmmap.c
                                            *                                                                               C:\3DAQ\firmware\system\usb\usbmmap.c
                                            *   A. CTRL_TRF_SETUP                                                           C:\3DAQ\firmware\system\usb\usbmmap.c
                                            *      - Size = EP0_BUFF_SIZE as defined in autofiles\usbcfg.h                  C:\3DAQ\firmware\system\usb\usbmmap.c
                                            *      - Detailed data structure allows direct adddressing of bits and bytes.   C:\3DAQ\firmware\system\usb\usbmmap.c
                                            *                                                                               C:\3DAQ\firmware\system\usb\usbmmap.c
                                            *   B. CTRL_TRF_DATA                                                            C:\3DAQ\firmware\system\usb\usbmmap.c
                                            *      - Size = EP0_BUFF_SIZE as defined in autofiles\usbcfg.h                  C:\3DAQ\firmware\system\usb\usbmmap.c
                                            *      - Data structure allows direct adddressing of the first 8 bytes.         C:\3DAQ\firmware\system\usb\usbmmap.c
                                            *                                                                               C:\3DAQ\firmware\system\usb\usbmmap.c
                                            * - Both data types are defined in system\usb\usbdefs\usbdefs_ep0_buff.h        C:\3DAQ\firmware\system\usb\usbmmap.c
                                            *****************************************************************************/  C:\3DAQ\firmware\system\usb\usbmmap.c
                                           volatile far CTRL_TRF_SETUP SetupPkt;                                            C:\3DAQ\firmware\system\usb\usbmmap.c
                                           volatile far CTRL_TRF_DATA CtrlTrfData;                                          C:\3DAQ\firmware\system\usb\usbmmap.c
                                                                                                                            C:\3DAQ\firmware\system\usb\usbmmap.c
                                           /******************************************************************************  C:\3DAQ\firmware\system\usb\usbmmap.c
                                            * Section C: Buffer                                                             C:\3DAQ\firmware\system\usb\usbmmap.c
                                            ******************************************************************************  C:\3DAQ\firmware\system\usb\usbmmap.c
                                            *                                                                               C:\3DAQ\firmware\system\usb\usbmmap.c
                                            *****************************************************************************/  C:\3DAQ\firmware\system\usb\usbmmap.c
                                           volatile far byte usbgen_out[USBGEN_EP_SIZE];                                    C:\3DAQ\firmware\system\usb\usbmmap.c
                                           volatile far byte usbgen_in[USBGEN_EP_SIZE];                                     C:\3DAQ\firmware\system\usb\usbmmap.c
                                                                                                                            C:\3DAQ\firmware\system\usb\usbmmap.c
                                           #pragma udata                                                                    C:\3DAQ\firmware\system\usb\usbmmap.c
                                                                                                                            C:\3DAQ\firmware\system\usb\usbmmap.c
                                           /** EOF usbmmap.c ************************************************************/  C:\3DAQ\firmware\system\usb\usbmmap.c
                                           /** I N C L U D E S **********************************************************/  C:\3DAQ\firmware\system\usb\usbdrv\usbdrv.c
                                           #include <p18cxxx.h>                                                             C:\3DAQ\firmware\system\usb\usbdrv\usbdrv.c
                                           #include "system\typedefs.h"                                                     C:\3DAQ\firmware\system\usb\usbdrv\usbdrv.c
                                           #include "system\usb\usb.h"                                                      C:\3DAQ\firmware\system\usb\usbdrv\usbdrv.c
                                           #include "io_cfg.h"             // Required for USBCheckBusStatus()              C:\3DAQ\firmware\system\usb\usbdrv\usbdrv.c
                                                                                                                            C:\3DAQ\firmware\system\usb\usbdrv\usbdrv.c
                                           /** V A R I A B L E S ********************************************************/  C:\3DAQ\firmware\system\usb\usbdrv\usbdrv.c
                                           #pragma udata                                                                    C:\3DAQ\firmware\system\usb\usbdrv\usbdrv.c
                                                                                                                            C:\3DAQ\firmware\system\usb\usbdrv\usbdrv.c
                                           /** P R I V A T E  P R O T O T Y P E S ***************************************/  C:\3DAQ\firmware\system\usb\usbdrv\usbdrv.c
                                           void USBModuleEnable(void);                                                      C:\3DAQ\firmware\system\usb\usbdrv\usbdrv.c
                                           void USBModuleDisable(void);                                                     C:\3DAQ\firmware\system\usb\usbdrv\usbdrv.c
                                                                                                                            C:\3DAQ\firmware\system\usb\usbdrv\usbdrv.c
                                           void USBSuspend(void);                                                           C:\3DAQ\firmware\system\usb\usbdrv\usbdrv.c
                                           void USBWakeFromSuspend(void);                                                   C:\3DAQ\firmware\system\usb\usbdrv\usbdrv.c
                                                                                                                            C:\3DAQ\firmware\system\usb\usbdrv\usbdrv.c
                                           void USBProtocolResetHandler(void);                                              C:\3DAQ\firmware\system\usb\usbdrv\usbdrv.c
                                           void USB_SOF_Handler(void);                                                      C:\3DAQ\firmware\system\usb\usbdrv\usbdrv.c
                                           void USBStallHandler(void);                                                      C:\3DAQ\firmware\system\usb\usbdrv\usbdrv.c
                                           void USBErrorHandler(void);                                                      C:\3DAQ\firmware\system\usb\usbdrv\usbdrv.c
                                                                                                                            C:\3DAQ\firmware\system\usb\usbdrv\usbdrv.c
                                           /** D E C L A R A T I O N S **************************************************/  C:\3DAQ\firmware\system\usb\usbdrv\usbdrv.c
                                           #pragma code                                                                     C:\3DAQ\firmware\system\usb\usbdrv\usbdrv.c
                                           /******************************************************************************  C:\3DAQ\firmware\system\usb\usbdrv\usbdrv.c
                                            * Function:        void USBCheckBusStatus(void)                                 C:\3DAQ\firmware\system\usb\usbdrv\usbdrv.c
                                            *                                                                               C:\3DAQ\firmware\system\usb\usbdrv\usbdrv.c
                                            * PreCondition:    None                                                         C:\3DAQ\firmware\system\usb\usbdrv\usbdrv.c
                                            *                                                                               C:\3DAQ\firmware\system\usb\usbdrv\usbdrv.c
                                            * Input:           None                                                         C:\3DAQ\firmware\system\usb\usbdrv\usbdrv.c
                                            *                                                                               C:\3DAQ\firmware\system\usb\usbdrv\usbdrv.c
                                            * Output:          None                                                         C:\3DAQ\firmware\system\usb\usbdrv\usbdrv.c
                                            *                                                                               C:\3DAQ\firmware\system\usb\usbdrv\usbdrv.c
                                            * Side Effects:    None                                                         C:\3DAQ\firmware\system\usb\usbdrv\usbdrv.c
                                            *                                                                               C:\3DAQ\firmware\system\usb\usbdrv\usbdrv.c
                                            * Overview:        This routine enables/disables the USB module by monitoring   C:\3DAQ\firmware\system\usb\usbdrv\usbdrv.c
                                            *                  the USB power signal.                                        C:\3DAQ\firmware\system\usb\usbdrv\usbdrv.c
                                            *                                                                               C:\3DAQ\firmware\system\usb\usbdrv\usbdrv.c
                                            * Note:            None                                                         C:\3DAQ\firmware\system\usb\usbdrv\usbdrv.c
                                            *****************************************************************************/  C:\3DAQ\firmware\system\usb\usbdrv\usbdrv.c
                                           void USBCheckBusStatus(void)                                                     C:\3DAQ\firmware\system\usb\usbdrv\usbdrv.c
                                           {                                                                                C:\3DAQ\firmware\system\usb\usbdrv\usbdrv.c
                                               /**************************************************************************  C:\3DAQ\firmware\system\usb\usbdrv\usbdrv.c
                                                * Bus Attachment & Detachment Detection                                     C:\3DAQ\firmware\system\usb\usbdrv\usbdrv.c
                                                * usb_bus_sense is an i/o pin defined in io_cfg.h                           C:\3DAQ\firmware\system\usb\usbdrv\usbdrv.c
                                                *************************************************************************/  C:\3DAQ\firmware\system\usb\usbdrv\usbdrv.c
                                               #define USB_BUS_ATTACHED    1                                                C:\3DAQ\firmware\system\usb\usbdrv\usbdrv.c
                                               #define USB_BUS_DETACHED    0                                                C:\3DAQ\firmware\system\usb\usbdrv\usbdrv.c
                                           //mod by Tim                                                                     C:\3DAQ\firmware\system\usb\usbdrv\usbdrv.c
                                           //we're assuming the USB is attached - the PIC wouldn't be powered otherwise     C:\3DAQ\firmware\system\usb\usbdrv\usbdrv.c
                                               //if(usb_bus_sense == USB_BUS_ATTACHED)       // Is USB bus attached?        C:\3DAQ\firmware\system\usb\usbdrv\usbdrv.c
                                               //{                                                                          C:\3DAQ\firmware\system\usb\usbdrv\usbdrv.c
001378   a66d     BTFSS     0x6d,0x3,0x0           if(UCONbits.USBEN == 0)                 // Is the module off?            C:\3DAQ\firmware\system\usb\usbdrv\usbdrv.c
00137a   d80c     RCALL     0x1394                     USBModuleEnable();                  // Is off, enable it             C:\3DAQ\firmware\system\usb\usbdrv\usbdrv.c
                                               //}                                                                          C:\3DAQ\firmware\system\usb\usbdrv\usbdrv.c
                                           /*                                                                               C:\3DAQ\firmware\system\usb\usbdrv\usbdrv.c
                                               else //USB bus not attached                                                  C:\3DAQ\firmware\system\usb\usbdrv\usbdrv.c
                                               {		                                                                          C:\3DAQ\firmware\system\usb\usbdrv\usbdrv.c
                                                   if(UCONbits.USBEN == 1)                 // Is the module on?             C:\3DAQ\firmware\system\usb\usbdrv\usbdrv.c
                                                       USBModuleDisable();                 // Is on, disable it             C:\3DAQ\firmware\system\usb\usbdrv\usbdrv.c
                                               }//end if(usb_bus_sense...)                                                  C:\3DAQ\firmware\system\usb\usbdrv\usbdrv.c
                                           */                                                                               C:\3DAQ\firmware\system\usb\usbdrv\usbdrv.c
                                           //end mod by Tim                                                                 C:\3DAQ\firmware\system\usb\usbdrv\usbdrv.c
                                                                                                                            C:\3DAQ\firmware\system\usb\usbdrv\usbdrv.c
                                               /*                                                                           C:\3DAQ\firmware\system\usb\usbdrv\usbdrv.c
                                                * After enabling the USB module, it takes some time for the voltage         C:\3DAQ\firmware\system\usb\usbdrv\usbdrv.c
                                                * on the D+ or D- line to rise high enough to get out of the SE0 condition. C:\3DAQ\firmware\system\usb\usbdrv\usbdrv.c
                                                * The USB Reset interrupt should not be unmasked until the SE0 condition is C:\3DAQ\firmware\system\usb\usbdrv\usbdrv.c
                                                * cleared. This helps preventing the firmware from misinterpreting this     C:\3DAQ\firmware\system\usb\usbdrv\usbdrv.c
                                                * unique event as a USB bus reset from the USB host.                        C:\3DAQ\firmware\system\usb\usbdrv\usbdrv.c
                                                */                                                                          C:\3DAQ\firmware\system\usb\usbdrv\usbdrv.c
00137c   0100     MOVLB     0x0                if(usb_device_state == ATTACHED_STATE)                                       C:\3DAQ\firmware\system\usb\usbdrv\usbdrv.c
00137e   05f2     DECF      0xf2,0x0,0x1                                                                                    
001380   e108     BNZ       0x1392                                                                                          
                                               {                                                                            C:\3DAQ\firmware\system\usb\usbdrv\usbdrv.c
001382   ba6d     BTFSC     0x6d,0x5,0x0           if(!UCONbits.SE0)                                                        C:\3DAQ\firmware\system\usb\usbdrv\usbdrv.c
001384   d006     BRA       0x1392                                                                                          
                                                   {                                                                        C:\3DAQ\firmware\system\usb\usbdrv\usbdrv.c
001386   6a68     CLRF      0x68,0x0                   UIR = 0;                        // Clear all USB interrupts          C:\3DAQ\firmware\system\usb\usbdrv\usbdrv.c
001388   6a69     CLRF      0x69,0x0                   UIE = 0;                        // Mask all USB interrupts           C:\3DAQ\firmware\system\usb\usbdrv\usbdrv.c
00138a   8069     BSF       0x69,0x0,0x0               UIEbits.URSTIE = 1;             // Unmask RESET interrupt            C:\3DAQ\firmware\system\usb\usbdrv\usbdrv.c
00138c   8869     BSF       0x69,0x4,0x0               UIEbits.IDLEIE = 1;             // Unmask IDLE interrupt             C:\3DAQ\firmware\system\usb\usbdrv\usbdrv.c
00138e   0e02     MOVLW     0x2                        usb_device_state = POWERED_STATE;                                    C:\3DAQ\firmware\system\usb\usbdrv\usbdrv.c
001390   6ff2     MOVWF     0xf2,0x1                                                                                        
                                                   }//end if                           // else wait until SE0 is cleared    C:\3DAQ\firmware\system\usb\usbdrv\usbdrv.c
                                               }//end if(usb_device_state == ATTACHED_STATE)                                C:\3DAQ\firmware\system\usb\usbdrv\usbdrv.c
                                                                                                                            C:\3DAQ\firmware\system\usb\usbdrv\usbdrv.c
001392   0012     RETURN    0x0            }//end USBCheckBusStatus                                                         C:\3DAQ\firmware\system\usb\usbdrv\usbdrv.c
                                                                                                                            C:\3DAQ\firmware\system\usb\usbdrv\usbdrv.c
                                           /******************************************************************************  C:\3DAQ\firmware\system\usb\usbdrv\usbdrv.c
                                            * Function:        void USBModuleEnable(void)                                   C:\3DAQ\firmware\system\usb\usbdrv\usbdrv.c
                                            *                                                                               C:\3DAQ\firmware\system\usb\usbdrv\usbdrv.c
                                            * PreCondition:    None                                                         C:\3DAQ\firmware\system\usb\usbdrv\usbdrv.c
                                            *                                                                               C:\3DAQ\firmware\system\usb\usbdrv\usbdrv.c
                                            * Input:           None                                                         C:\3DAQ\firmware\system\usb\usbdrv\usbdrv.c
                                            *                                                                               C:\3DAQ\firmware\system\usb\usbdrv\usbdrv.c
                                            * Output:          None                                                         C:\3DAQ\firmware\system\usb\usbdrv\usbdrv.c
                                            *                                                                               C:\3DAQ\firmware\system\usb\usbdrv\usbdrv.c
                                            * Side Effects:    None                                                         C:\3DAQ\firmware\system\usb\usbdrv\usbdrv.c
                                            *                                                                               C:\3DAQ\firmware\system\usb\usbdrv\usbdrv.c
                                            * Overview:        This routine enables the USB module.                         C:\3DAQ\firmware\system\usb\usbdrv\usbdrv.c
                                            *                  An end designer should never have to call this routine       C:\3DAQ\firmware\system\usb\usbdrv\usbdrv.c
                                            *                  manually. This routine should only be called from            C:\3DAQ\firmware\system\usb\usbdrv\usbdrv.c
                                            *                  USBCheckBusStatus().                                         C:\3DAQ\firmware\system\usb\usbdrv\usbdrv.c
                                            *                                                                               C:\3DAQ\firmware\system\usb\usbdrv\usbdrv.c
                                            * Note:            See USBCheckBusStatus() for more information.                C:\3DAQ\firmware\system\usb\usbdrv\usbdrv.c
                                            *****************************************************************************/  C:\3DAQ\firmware\system\usb\usbdrv\usbdrv.c
                                           void USBModuleEnable(void)                                                       C:\3DAQ\firmware\system\usb\usbdrv\usbdrv.c
                                           {                                                                                C:\3DAQ\firmware\system\usb\usbdrv\usbdrv.c
001394   6a6d     CLRF      0x6d,0x0           UCON = 0;                                                                    C:\3DAQ\firmware\system\usb\usbdrv\usbdrv.c
001396   6a69     CLRF      0x69,0x0           UIE = 0;                                // Mask all USB interrupts           C:\3DAQ\firmware\system\usb\usbdrv\usbdrv.c
001398   866d     BSF       0x6d,0x3,0x0       UCONbits.USBEN = 1;                     // Enable module & attach to bus     C:\3DAQ\firmware\system\usb\usbdrv\usbdrv.c
00139a   0100     MOVLB     0x0                usb_device_state = ATTACHED_STATE;      // Defined in usbmmap.c & .h         C:\3DAQ\firmware\system\usb\usbdrv\usbdrv.c
00139c   0e01     MOVLW     0x1                                                                                             
00139e   6ff2     MOVWF     0xf2,0x1                                                                                        
0013a0   0012     RETURN    0x0            }//end USBModuleEnable                                                           C:\3DAQ\firmware\system\usb\usbdrv\usbdrv.c
                                                                                                                            C:\3DAQ\firmware\system\usb\usbdrv\usbdrv.c
                                           /******************************************************************************  C:\3DAQ\firmware\system\usb\usbdrv\usbdrv.c
                                            * Function:        void USBModuleDisable(void)                                  C:\3DAQ\firmware\system\usb\usbdrv\usbdrv.c
                                            *                                                                               C:\3DAQ\firmware\system\usb\usbdrv\usbdrv.c
                                            * PreCondition:    None                                                         C:\3DAQ\firmware\system\usb\usbdrv\usbdrv.c
                                            *                                                                               C:\3DAQ\firmware\system\usb\usbdrv\usbdrv.c
                                            * Input:           None                                                         C:\3DAQ\firmware\system\usb\usbdrv\usbdrv.c
                                            *                                                                               C:\3DAQ\firmware\system\usb\usbdrv\usbdrv.c
                                            * Output:          None                                                         C:\3DAQ\firmware\system\usb\usbdrv\usbdrv.c
                                            *                                                                               C:\3DAQ\firmware\system\usb\usbdrv\usbdrv.c
                                            * Side Effects:    None                                                         C:\3DAQ\firmware\system\usb\usbdrv\usbdrv.c
                                            *                                                                               C:\3DAQ\firmware\system\usb\usbdrv\usbdrv.c
                                            * Overview:        This routine disables the USB module.                        C:\3DAQ\firmware\system\usb\usbdrv\usbdrv.c
                                            *                  An end designer should never have to call this routine       C:\3DAQ\firmware\system\usb\usbdrv\usbdrv.c
                                            *                  manually. This routine should only be called from            C:\3DAQ\firmware\system\usb\usbdrv\usbdrv.c
                                            *                  USBCheckBusStatus().                                         C:\3DAQ\firmware\system\usb\usbdrv\usbdrv.c
                                            *                                                                               C:\3DAQ\firmware\system\usb\usbdrv\usbdrv.c
                                            * Note:            See USBCheckBusStatus() for more information.                C:\3DAQ\firmware\system\usb\usbdrv\usbdrv.c
                                            *****************************************************************************/  C:\3DAQ\firmware\system\usb\usbdrv\usbdrv.c
                                           void USBModuleDisable(void)                                                      C:\3DAQ\firmware\system\usb\usbdrv\usbdrv.c
                                           {                                                                                C:\3DAQ\firmware\system\usb\usbdrv\usbdrv.c
0013a2   6a6d     CLRF      0x6d,0x0           UCON = 0;                               // Disable module & detach from bus  C:\3DAQ\firmware\system\usb\usbdrv\usbdrv.c
0013a4   6a69     CLRF      0x69,0x0           UIE = 0;                                // Mask all USB interrupts           C:\3DAQ\firmware\system\usb\usbdrv\usbdrv.c
0013a6   0100     MOVLB     0x0                usb_device_state = DETACHED_STATE;      // Defined in usbmmap.c & .h         C:\3DAQ\firmware\system\usb\usbdrv\usbdrv.c
0013a8   6bf2     CLRF      0xf2,0x1                                                                                        
0013aa   0012     RETURN    0x0            }//end USBModuleDisable                                                          C:\3DAQ\firmware\system\usb\usbdrv\usbdrv.c
                                                                                                                            C:\3DAQ\firmware\system\usb\usbdrv\usbdrv.c
                                           /******************************************************************************  C:\3DAQ\firmware\system\usb\usbdrv\usbdrv.c
                                            * Function:        void USBSoftDetach(void)                                     C:\3DAQ\firmware\system\usb\usbdrv\usbdrv.c
                                            *                                                                               C:\3DAQ\firmware\system\usb\usbdrv\usbdrv.c
                                            * PreCondition:    None                                                         C:\3DAQ\firmware\system\usb\usbdrv\usbdrv.c
                                            *                                                                               C:\3DAQ\firmware\system\usb\usbdrv\usbdrv.c
                                            * Input:           None                                                         C:\3DAQ\firmware\system\usb\usbdrv\usbdrv.c
                                            *                                                                               C:\3DAQ\firmware\system\usb\usbdrv\usbdrv.c
                                            * Output:          None                                                         C:\3DAQ\firmware\system\usb\usbdrv\usbdrv.c
                                            *                                                                               C:\3DAQ\firmware\system\usb\usbdrv\usbdrv.c
                                            * Side Effects:    The device will have to be re-enumerated to function again.  C:\3DAQ\firmware\system\usb\usbdrv\usbdrv.c
                                            *                                                                               C:\3DAQ\firmware\system\usb\usbdrv\usbdrv.c
                                            * Overview:        USBSoftDetach electrically disconnects the device from       C:\3DAQ\firmware\system\usb\usbdrv\usbdrv.c
                                            *                  the bus. This is done by stop supplying Vusb voltage to      C:\3DAQ\firmware\system\usb\usbdrv\usbdrv.c
                                            *                  pull-up resistor. The pull-down resistors on the host        C:\3DAQ\firmware\system\usb\usbdrv\usbdrv.c
                                            *                  side will pull both differential signal lines low and        C:\3DAQ\firmware\system\usb\usbdrv\usbdrv.c
                                            *                  the host registers the event as a disconnect.                C:\3DAQ\firmware\system\usb\usbdrv\usbdrv.c
                                            *                                                                               C:\3DAQ\firmware\system\usb\usbdrv\usbdrv.c
                                            *                  Since the USB cable is not physically disconnected, the      C:\3DAQ\firmware\system\usb\usbdrv\usbdrv.c
                                            *                  power supply through the cable can still be sensed by        C:\3DAQ\firmware\system\usb\usbdrv\usbdrv.c
                                            *                  the device. The next time USBCheckBusStatus() function       C:\3DAQ\firmware\system\usb\usbdrv\usbdrv.c
                                            *                  is called, it will reconnect the device back to the bus.     C:\3DAQ\firmware\system\usb\usbdrv\usbdrv.c
                                            *                                                                               C:\3DAQ\firmware\system\usb\usbdrv\usbdrv.c
                                            * Note:            None                                                         C:\3DAQ\firmware\system\usb\usbdrv\usbdrv.c
                                            *****************************************************************************/  C:\3DAQ\firmware\system\usb\usbdrv\usbdrv.c
                                           void USBSoftDetach(void)                                                         C:\3DAQ\firmware\system\usb\usbdrv\usbdrv.c
                                           {                                                                                C:\3DAQ\firmware\system\usb\usbdrv\usbdrv.c
0013ac   efd1     GOTO      0x13a2             USBModuleDisable();                                                          C:\3DAQ\firmware\system\usb\usbdrv\usbdrv.c
0013ae   f009                                                                                                               
                                           }//end USBSoftDetach                                                             C:\3DAQ\firmware\system\usb\usbdrv\usbdrv.c
                                                                                                                            C:\3DAQ\firmware\system\usb\usbdrv\usbdrv.c
                                           /******************************************************************************  C:\3DAQ\firmware\system\usb\usbdrv\usbdrv.c
                                            * Function:        void USBDriverService(void)                                  C:\3DAQ\firmware\system\usb\usbdrv\usbdrv.c
                                            *                                                                               C:\3DAQ\firmware\system\usb\usbdrv\usbdrv.c
                                            * PreCondition:    None                                                         C:\3DAQ\firmware\system\usb\usbdrv\usbdrv.c
                                            *                                                                               C:\3DAQ\firmware\system\usb\usbdrv\usbdrv.c
                                            * Input:           None                                                         C:\3DAQ\firmware\system\usb\usbdrv\usbdrv.c
                                            *                                                                               C:\3DAQ\firmware\system\usb\usbdrv\usbdrv.c
                                            * Output:          None                                                         C:\3DAQ\firmware\system\usb\usbdrv\usbdrv.c
                                            *                                                                               C:\3DAQ\firmware\system\usb\usbdrv\usbdrv.c
                                            * Side Effects:    None                                                         C:\3DAQ\firmware\system\usb\usbdrv\usbdrv.c
                                            *                                                                               C:\3DAQ\firmware\system\usb\usbdrv\usbdrv.c
                                            * Overview:        This routine is the heart of this firmware. It manages       C:\3DAQ\firmware\system\usb\usbdrv\usbdrv.c
                                            *                  all USB interrupts.                                          C:\3DAQ\firmware\system\usb\usbdrv\usbdrv.c
                                            *                                                                               C:\3DAQ\firmware\system\usb\usbdrv\usbdrv.c
                                            * Note:            Device state transitions through the following stages:       C:\3DAQ\firmware\system\usb\usbdrv\usbdrv.c
                                            *                  DETACHED -> ATTACHED -> POWERED -> DEFAULT ->                C:\3DAQ\firmware\system\usb\usbdrv\usbdrv.c
                                            *                  ADDRESS_PENDING -> ADDRESSED -> CONFIGURED -> READY          C:\3DAQ\firmware\system\usb\usbdrv\usbdrv.c
                                            *****************************************************************************/  C:\3DAQ\firmware\system\usb\usbdrv\usbdrv.c
                                           void USBDriverService(void)                                                      C:\3DAQ\firmware\system\usb\usbdrv\usbdrv.c
                                           {                                                                                C:\3DAQ\firmware\system\usb\usbdrv\usbdrv.c
                                               /*                                                                           C:\3DAQ\firmware\system\usb\usbdrv\usbdrv.c
                                                * Pointless to continue servicing if USB cable is not even attached.        C:\3DAQ\firmware\system\usb\usbdrv\usbdrv.c
                                                */                                                                          C:\3DAQ\firmware\system\usb\usbdrv\usbdrv.c
0013b0   0100     MOVLB     0x0                if(usb_device_state == DETACHED_STATE) return;                               C:\3DAQ\firmware\system\usb\usbdrv\usbdrv.c
0013b2   51f2     MOVF      0xf2,0x0,0x1                                                                                    
0013b4   e101     BNZ       0x13b8                                                                                          
0013b6   d03a     BRA       0x142c                                                                                          
                                                                                                                            C:\3DAQ\firmware\system\usb\usbdrv\usbdrv.c
                                               /*                                                                           C:\3DAQ\firmware\system\usb\usbdrv\usbdrv.c
                                                * Task A: Service USB Activity Interrupt                                    C:\3DAQ\firmware\system\usb\usbdrv\usbdrv.c
                                                */                                                                          C:\3DAQ\firmware\system\usb\usbdrv\usbdrv.c
                                                                                                                            C:\3DAQ\firmware\system\usb\usbdrv\usbdrv.c
0013b8   5068     MOVF      0x68,0x0,0x0       if(UIRbits.ACTVIF && UIEbits.ACTVIE)    USBWakeFromSuspend();                C:\3DAQ\firmware\system\usb\usbdrv\usbdrv.c
0013ba   0b04     ANDLW     0x4                                                                                             
0013bc   e004     BZ        0x13c6                                                                                          
0013be   5069     MOVF      0x69,0x0,0x0                                                                                    
0013c0   0b04     ANDLW     0x4                                                                                             
0013c2   e001     BZ        0x13c6                                                                                          
0013c4   d838     RCALL     0x1436                                                                                          
                                                                                                                            C:\3DAQ\firmware\system\usb\usbdrv\usbdrv.c
                                               /*                                                                           C:\3DAQ\firmware\system\usb\usbdrv\usbdrv.c
                                                * Pointless to continue servicing if the device is in suspend mode.         C:\3DAQ\firmware\system\usb\usbdrv\usbdrv.c
                                                */                                                                          C:\3DAQ\firmware\system\usb\usbdrv\usbdrv.c
0013c6   b26d     BTFSC     0x6d,0x1,0x0       if(UCONbits.SUSPND==1) return;                                               C:\3DAQ\firmware\system\usb\usbdrv\usbdrv.c
0013c8   d031     BRA       0x142c                                                                                          
                                                                                                                            C:\3DAQ\firmware\system\usb\usbdrv\usbdrv.c
                                               /*                                                                           C:\3DAQ\firmware\system\usb\usbdrv\usbdrv.c
                                                * Task B: Service USB Bus Reset Interrupt.                                  C:\3DAQ\firmware\system\usb\usbdrv\usbdrv.c
                                                * When bus reset is received during suspend, ACTVIF will be set first,      C:\3DAQ\firmware\system\usb\usbdrv\usbdrv.c
                                                * once the UCONbits.SUSPND is clear, then the URSTIF bit will be asserted.  C:\3DAQ\firmware\system\usb\usbdrv\usbdrv.c
                                                * This is why URSTIF is checked after ACTVIF.                               C:\3DAQ\firmware\system\usb\usbdrv\usbdrv.c
                                                */                                                                          C:\3DAQ\firmware\system\usb\usbdrv\usbdrv.c
0013ca   5068     MOVF      0x68,0x0,0x0       if(UIRbits.URSTIF && UIEbits.URSTIE)    USBProtocolResetHandler();           C:\3DAQ\firmware\system\usb\usbdrv\usbdrv.c
0013cc   0b01     ANDLW     0x1                                                                                             
0013ce   e004     BZ        0x13d8                                                                                          
0013d0   5069     MOVF      0x69,0x0,0x0                                                                                    
0013d2   0b01     ANDLW     0x1                                                                                             
0013d4   e001     BZ        0x13d8                                                                                          
0013d6   d850     RCALL     0x1478                                                                                          
                                                                                                                            C:\3DAQ\firmware\system\usb\usbdrv\usbdrv.c
                                               /*                                                                           C:\3DAQ\firmware\system\usb\usbdrv\usbdrv.c
                                                * Task C: Service other USB interrupts                                      C:\3DAQ\firmware\system\usb\usbdrv\usbdrv.c
                                                */                                                                          C:\3DAQ\firmware\system\usb\usbdrv\usbdrv.c
0013d8   5068     MOVF      0x68,0x0,0x0       if(UIRbits.IDLEIF && UIEbits.IDLEIE)    USBSuspend();                        C:\3DAQ\firmware\system\usb\usbdrv\usbdrv.c
0013da   0b10     ANDLW     0x10                                                                                            
0013dc   e004     BZ        0x13e6                                                                                          
0013de   5069     MOVF      0x69,0x0,0x0                                                                                    
0013e0   0b10     ANDLW     0x10                                                                                            
0013e2   e001     BZ        0x13e6                                                                                          
0013e4   d824     RCALL     0x142e                                                                                          
0013e6   5068     MOVF      0x68,0x0,0x0       if(UIRbits.SOFIF && UIEbits.SOFIE)      USB_SOF_Handler();                   C:\3DAQ\firmware\system\usb\usbdrv\usbdrv.c
0013e8   0b40     ANDLW     0x40                                                                                            
0013ea   e004     BZ        0x13f4                                                                                          
0013ec   5069     MOVF      0x69,0x0,0x0                                                                                    
0013ee   0b40     ANDLW     0x40                                                                                            
0013f0   e001     BZ        0x13f4                                                                                          
0013f2   d837     RCALL     0x1462                                                                                          
0013f4   5068     MOVF      0x68,0x0,0x0       if(UIRbits.STALLIF && UIEbits.STALLIE)  USBStallHandler();                   C:\3DAQ\firmware\system\usb\usbdrv\usbdrv.c
0013f6   0b20     ANDLW     0x20                                                                                            
0013f8   e004     BZ        0x1402                                                                                          
0013fa   5069     MOVF      0x69,0x0,0x0                                                                                    
0013fc   0b20     ANDLW     0x20                                                                                            
0013fe   e001     BZ        0x1402                                                                                          
001400   d832     RCALL     0x1466                                                                                          
001402   5068     MOVF      0x68,0x0,0x0       if(UIRbits.UERRIF && UIEbits.UERRIE)    USBErrorHandler();                   C:\3DAQ\firmware\system\usb\usbdrv\usbdrv.c
001404   0b02     ANDLW     0x2                                                                                             
001406   e004     BZ        0x1410                                                                                          
001408   5069     MOVF      0x69,0x0,0x0                                                                                    
00140a   0b02     ANDLW     0x2                                                                                             
00140c   e001     BZ        0x1410                                                                                          
00140e   d832     RCALL     0x1474                                                                                          
                                                                                                                            C:\3DAQ\firmware\system\usb\usbdrv\usbdrv.c
                                               /*                                                                           C:\3DAQ\firmware\system\usb\usbdrv\usbdrv.c
                                                * Pointless to continue servicing if the host has not sent a bus reset.     C:\3DAQ\firmware\system\usb\usbdrv\usbdrv.c
                                                * Once bus reset is received, the device transitions into the DEFAULT       C:\3DAQ\firmware\system\usb\usbdrv\usbdrv.c
                                                * state and is ready for communication.                                     C:\3DAQ\firmware\system\usb\usbdrv\usbdrv.c
                                                */                                                                          C:\3DAQ\firmware\system\usb\usbdrv\usbdrv.c
001410   0e03     MOVLW     0x3                if(usb_device_state < DEFAULT_STATE) return;                                 C:\3DAQ\firmware\system\usb\usbdrv\usbdrv.c
001412   0100     MOVLB     0x0                                                                                             
001414   5df2     SUBWF     0xf2,0x0,0x1                                                                                    
001416   e201     BC        0x141a                                                                                          
001418   d009     BRA       0x142c                                                                                          
                                                                                                                            C:\3DAQ\firmware\system\usb\usbdrv\usbdrv.c
                                               /*                                                                           C:\3DAQ\firmware\system\usb\usbdrv\usbdrv.c
                                                * Task D: Servicing USB Transaction Complete Interrupt                      C:\3DAQ\firmware\system\usb\usbdrv\usbdrv.c
                                                */                                                                          C:\3DAQ\firmware\system\usb\usbdrv\usbdrv.c
00141a   5068     MOVF      0x68,0x0,0x0       if(UIRbits.TRNIF && UIEbits.TRNIE)                                           C:\3DAQ\firmware\system\usb\usbdrv\usbdrv.c
00141c   0b08     ANDLW     0x8                                                                                             
00141e   e006     BZ        0x142c                                                                                          
001420   5069     MOVF      0x69,0x0,0x0                                                                                    
001422   0b08     ANDLW     0x8                                                                                             
001424   e003     BZ        0x142c                                                                                          
                                               {                                                                            C:\3DAQ\firmware\system\usb\usbdrv\usbdrv.c
                                                   /*                                                                       C:\3DAQ\firmware\system\usb\usbdrv\usbdrv.c
                                                    * USBCtrlEPService only services transactions over EP0.                 C:\3DAQ\firmware\system\usb\usbdrv\usbdrv.c
                                                    * It ignores all other EP transactions.                                 C:\3DAQ\firmware\system\usb\usbdrv\usbdrv.c
                                                    */                                                                      C:\3DAQ\firmware\system\usb\usbdrv\usbdrv.c
001426   ec63     CALL      0x10c6,0x0             USBCtrlEPService();                                                      C:\3DAQ\firmware\system\usb\usbdrv\usbdrv.c
001428   f008                                                                                                               
                                                                                                                            C:\3DAQ\firmware\system\usb\usbdrv\usbdrv.c
                                                   /*                                                                       C:\3DAQ\firmware\system\usb\usbdrv\usbdrv.c
                                                    * Other EP can be serviced later by responsible device class firmware.  C:\3DAQ\firmware\system\usb\usbdrv\usbdrv.c
                                                    * Each device driver knows when an OUT or IN transaction is ready by    C:\3DAQ\firmware\system\usb\usbdrv\usbdrv.c
                                                    * checking the buffer ownership bit.                                    C:\3DAQ\firmware\system\usb\usbdrv\usbdrv.c
                                                    * An OUT EP should always be owned by SIE until the data is ready.      C:\3DAQ\firmware\system\usb\usbdrv\usbdrv.c
                                                    * An IN EP should always be owned by CPU until the data is ready.       C:\3DAQ\firmware\system\usb\usbdrv\usbdrv.c
                                                    *                                                                       C:\3DAQ\firmware\system\usb\usbdrv\usbdrv.c
                                                    * Because of this logic, it is not necessary to save the USTAT value    C:\3DAQ\firmware\system\usb\usbdrv\usbdrv.c
                                                    * of non-EP0 transactions.                                              C:\3DAQ\firmware\system\usb\usbdrv\usbdrv.c
                                                    */                                                                      C:\3DAQ\firmware\system\usb\usbdrv\usbdrv.c
00142a   9668     BCF       0x68,0x3,0x0           UIRbits.TRNIF = 0;                                                       C:\3DAQ\firmware\system\usb\usbdrv\usbdrv.c
                                               }//end if(UIRbits.TRNIF && UIEbits.TRNIE)                                    C:\3DAQ\firmware\system\usb\usbdrv\usbdrv.c
                                                                                                                            C:\3DAQ\firmware\system\usb\usbdrv\usbdrv.c
00142c   0012     RETURN    0x0            }//end USBDriverService                                                          C:\3DAQ\firmware\system\usb\usbdrv\usbdrv.c
                                                                                                                            C:\3DAQ\firmware\system\usb\usbdrv\usbdrv.c
                                           /******************************************************************************  C:\3DAQ\firmware\system\usb\usbdrv\usbdrv.c
                                            * Function:        void USBSuspend(void)                                        C:\3DAQ\firmware\system\usb\usbdrv\usbdrv.c
                                            *                                                                               C:\3DAQ\firmware\system\usb\usbdrv\usbdrv.c
                                            * PreCondition:    None                                                         C:\3DAQ\firmware\system\usb\usbdrv\usbdrv.c
                                            *                                                                               C:\3DAQ\firmware\system\usb\usbdrv\usbdrv.c
                                            * Input:           None                                                         C:\3DAQ\firmware\system\usb\usbdrv\usbdrv.c
                                            *                                                                               C:\3DAQ\firmware\system\usb\usbdrv\usbdrv.c
                                            * Output:          None                                                         C:\3DAQ\firmware\system\usb\usbdrv\usbdrv.c
                                            *                                                                               C:\3DAQ\firmware\system\usb\usbdrv\usbdrv.c
                                            * Side Effects:    None                                                         C:\3DAQ\firmware\system\usb\usbdrv\usbdrv.c
                                            *                                                                               C:\3DAQ\firmware\system\usb\usbdrv\usbdrv.c
                                            * Overview:                                                                     C:\3DAQ\firmware\system\usb\usbdrv\usbdrv.c
                                            *                                                                               C:\3DAQ\firmware\system\usb\usbdrv\usbdrv.c
                                            * Note:            None                                                         C:\3DAQ\firmware\system\usb\usbdrv\usbdrv.c
                                            *****************************************************************************/  C:\3DAQ\firmware\system\usb\usbdrv\usbdrv.c
                                           void USBSuspend(void)                                                            C:\3DAQ\firmware\system\usb\usbdrv\usbdrv.c
                                           {                                                                                C:\3DAQ\firmware\system\usb\usbdrv\usbdrv.c
                                               /*                                                                           C:\3DAQ\firmware\system\usb\usbdrv\usbdrv.c
                                                * NOTE: Do not clear UIRbits.ACTVIF here!                                   C:\3DAQ\firmware\system\usb\usbdrv\usbdrv.c
                                                * Reason:                                                                   C:\3DAQ\firmware\system\usb\usbdrv\usbdrv.c
                                                * ACTVIF is only generated once an IDLEIF has been generated.               C:\3DAQ\firmware\system\usb\usbdrv\usbdrv.c
                                                * This is a 1:1 ratio interrupt generation.                                 C:\3DAQ\firmware\system\usb\usbdrv\usbdrv.c
                                                * For every IDLEIF, there will be only one ACTVIF regardless of             C:\3DAQ\firmware\system\usb\usbdrv\usbdrv.c
                                                * the number of subsequent bus transitions.                                 C:\3DAQ\firmware\system\usb\usbdrv\usbdrv.c
                                                *                                                                           C:\3DAQ\firmware\system\usb\usbdrv\usbdrv.c
                                                * If the ACTIF is cleared here, a problem could occur when:                 C:\3DAQ\firmware\system\usb\usbdrv\usbdrv.c
                                                * [       IDLE       ][bus activity ->                                      C:\3DAQ\firmware\system\usb\usbdrv\usbdrv.c
                                                * <--- 3 ms ----->     ^                                                    C:\3DAQ\firmware\system\usb\usbdrv\usbdrv.c
                                                *                ^     ACTVIF=1                                             C:\3DAQ\firmware\system\usb\usbdrv\usbdrv.c
                                                *                IDLEIF=1                                                   C:\3DAQ\firmware\system\usb\usbdrv\usbdrv.c
                                                *  #           #           #           #   (#=Program polling flags)        C:\3DAQ\firmware\system\usb\usbdrv\usbdrv.c
                                                *                          ^                                                C:\3DAQ\firmware\system\usb\usbdrv\usbdrv.c
                                                *                          This polling loop will see both                  C:\3DAQ\firmware\system\usb\usbdrv\usbdrv.c
                                                *                          IDLEIF=1 and ACTVIF=1.                           C:\3DAQ\firmware\system\usb\usbdrv\usbdrv.c
                                                *                          However, the program services IDLEIF first       C:\3DAQ\firmware\system\usb\usbdrv\usbdrv.c
                                                *                          because ACTIVIE=0.                               C:\3DAQ\firmware\system\usb\usbdrv\usbdrv.c
                                                *                          If this routine clears the only ACTIVIF,         C:\3DAQ\firmware\system\usb\usbdrv\usbdrv.c
                                                *                          then it can never get out of the suspend         C:\3DAQ\firmware\system\usb\usbdrv\usbdrv.c
                                                *                          mode.                                            C:\3DAQ\firmware\system\usb\usbdrv\usbdrv.c
                                                */                                                                          C:\3DAQ\firmware\system\usb\usbdrv\usbdrv.c
00142e   8469     BSF       0x69,0x2,0x0       UIEbits.ACTVIE = 1;                     // Enable bus activity interrupt     C:\3DAQ\firmware\system\usb\usbdrv\usbdrv.c
001430   9868     BCF       0x68,0x4,0x0       UIRbits.IDLEIF = 0;                                                          C:\3DAQ\firmware\system\usb\usbdrv\usbdrv.c
001432   826d     BSF       0x6d,0x1,0x0       UCONbits.SUSPND = 1;                    // Put USB module in power conserve  C:\3DAQ\firmware\system\usb\usbdrv\usbdrv.c
                                                                                       // mode, SIE clock inactive          C:\3DAQ\firmware\system\usb\usbdrv\usbdrv.c
                                               /*                                                                           C:\3DAQ\firmware\system\usb\usbdrv\usbdrv.c
                                                * At this point the PIC can go into sleep,idle, or                          C:\3DAQ\firmware\system\usb\usbdrv\usbdrv.c
                                                * switch to a slower clock, etc.                                            C:\3DAQ\firmware\system\usb\usbdrv\usbdrv.c
                                                */                                                                          C:\3DAQ\firmware\system\usb\usbdrv\usbdrv.c
                                                                                                                            C:\3DAQ\firmware\system\usb\usbdrv\usbdrv.c
                                               /* Modifiable Section */                                                     C:\3DAQ\firmware\system\usb\usbdrv\usbdrv.c
                                                                                                                            C:\3DAQ\firmware\system\usb\usbdrv\usbdrv.c
                                               /* End Modifiable Section */                                                 C:\3DAQ\firmware\system\usb\usbdrv\usbdrv.c
                                                                                                                            C:\3DAQ\firmware\system\usb\usbdrv\usbdrv.c
001434   0012     RETURN    0x0            }//end USBSuspend                                                                C:\3DAQ\firmware\system\usb\usbdrv\usbdrv.c
                                                                                                                            C:\3DAQ\firmware\system\usb\usbdrv\usbdrv.c
                                           /******************************************************************************  C:\3DAQ\firmware\system\usb\usbdrv\usbdrv.c
                                            * Function:        void USBWakeFromSuspend(void)                                C:\3DAQ\firmware\system\usb\usbdrv\usbdrv.c
                                            *                                                                               C:\3DAQ\firmware\system\usb\usbdrv\usbdrv.c
                                            * PreCondition:    None                                                         C:\3DAQ\firmware\system\usb\usbdrv\usbdrv.c
                                            *                                                                               C:\3DAQ\firmware\system\usb\usbdrv\usbdrv.c
                                            * Input:           None                                                         C:\3DAQ\firmware\system\usb\usbdrv\usbdrv.c
                                            *                                                                               C:\3DAQ\firmware\system\usb\usbdrv\usbdrv.c
                                            * Output:          None                                                         C:\3DAQ\firmware\system\usb\usbdrv\usbdrv.c
                                            *                                                                               C:\3DAQ\firmware\system\usb\usbdrv\usbdrv.c
                                            * Side Effects:    None                                                         C:\3DAQ\firmware\system\usb\usbdrv\usbdrv.c
                                            *                                                                               C:\3DAQ\firmware\system\usb\usbdrv\usbdrv.c
                                            * Overview:                                                                     C:\3DAQ\firmware\system\usb\usbdrv\usbdrv.c
                                            *                                                                               C:\3DAQ\firmware\system\usb\usbdrv\usbdrv.c
                                            * Note:            None                                                         C:\3DAQ\firmware\system\usb\usbdrv\usbdrv.c
                                            *****************************************************************************/  C:\3DAQ\firmware\system\usb\usbdrv\usbdrv.c
                                           void USBWakeFromSuspend(void)                                                    C:\3DAQ\firmware\system\usb\usbdrv\usbdrv.c
                                           {                                                                                C:\3DAQ\firmware\system\usb\usbdrv\usbdrv.c
                                               /*                                                                           C:\3DAQ\firmware\system\usb\usbdrv\usbdrv.c
                                                * If using clock switching, this is the place to restore the                C:\3DAQ\firmware\system\usb\usbdrv\usbdrv.c
                                                * original clock frequency.                                                 C:\3DAQ\firmware\system\usb\usbdrv\usbdrv.c
                                                */                                                                          C:\3DAQ\firmware\system\usb\usbdrv\usbdrv.c
001436   926d     BCF       0x6d,0x1,0x0       UCONbits.SUSPND = 0;                                                         C:\3DAQ\firmware\system\usb\usbdrv\usbdrv.c
001438   9469     BCF       0x69,0x2,0x0       UIEbits.ACTVIE = 0;                                                          C:\3DAQ\firmware\system\usb\usbdrv\usbdrv.c
00143a   9468     BCF       0x68,0x2,0x0       UIRbits.ACTVIF = 0;                                                          C:\3DAQ\firmware\system\usb\usbdrv\usbdrv.c
00143c   0012     RETURN    0x0            }//end USBWakeFromSuspend                                                        C:\3DAQ\firmware\system\usb\usbdrv\usbdrv.c
                                                                                                                            C:\3DAQ\firmware\system\usb\usbdrv\usbdrv.c
                                           /******************************************************************************  C:\3DAQ\firmware\system\usb\usbdrv\usbdrv.c
                                            * Function:        void USBRemoteWakeup(void)                                   C:\3DAQ\firmware\system\usb\usbdrv\usbdrv.c
                                            *                                                                               C:\3DAQ\firmware\system\usb\usbdrv\usbdrv.c
                                            * PreCondition:    None                                                         C:\3DAQ\firmware\system\usb\usbdrv\usbdrv.c
                                            *                                                                               C:\3DAQ\firmware\system\usb\usbdrv\usbdrv.c
                                            * Input:           None                                                         C:\3DAQ\firmware\system\usb\usbdrv\usbdrv.c
                                            *                                                                               C:\3DAQ\firmware\system\usb\usbdrv\usbdrv.c
                                            * Output:          None                                                         C:\3DAQ\firmware\system\usb\usbdrv\usbdrv.c
                                            *                                                                               C:\3DAQ\firmware\system\usb\usbdrv\usbdrv.c
                                            * Side Effects:    None                                                         C:\3DAQ\firmware\system\usb\usbdrv\usbdrv.c
                                            *                                                                               C:\3DAQ\firmware\system\usb\usbdrv\usbdrv.c
                                            * Overview:        This function should be called by user when the device       C:\3DAQ\firmware\system\usb\usbdrv\usbdrv.c
                                            *                  is waken up by an external stimulus other than ACTIVIF.      C:\3DAQ\firmware\system\usb\usbdrv\usbdrv.c
                                            *                  Please read the note below to understand the limitations.    C:\3DAQ\firmware\system\usb\usbdrv\usbdrv.c
                                            *                                                                               C:\3DAQ\firmware\system\usb\usbdrv\usbdrv.c
                                            * Note:            The modifiable section in this routine should be changed     C:\3DAQ\firmware\system\usb\usbdrv\usbdrv.c
                                            *                  to meet the application needs. Current implementation        C:\3DAQ\firmware\system\usb\usbdrv\usbdrv.c
                                            *                  temporary blocks other functions from executing for a        C:\3DAQ\firmware\system\usb\usbdrv\usbdrv.c
                                            *                  period of 1-13 ms depending on the core frequency.           C:\3DAQ\firmware\system\usb\usbdrv\usbdrv.c
                                            *                                                                               C:\3DAQ\firmware\system\usb\usbdrv\usbdrv.c
                                            *                  According to USB 2.0 specification section 7.1.7.7,          C:\3DAQ\firmware\system\usb\usbdrv\usbdrv.c
                                            *                  "The remote wakeup device must hold the resume signaling     C:\3DAQ\firmware\system\usb\usbdrv\usbdrv.c
                                            *                  for at lest 1 ms but for no more than 15 ms."                C:\3DAQ\firmware\system\usb\usbdrv\usbdrv.c
                                            *                  The idea here is to use a delay counter loop, using a        C:\3DAQ\firmware\system\usb\usbdrv\usbdrv.c
                                            *                  common value that would work over a wide range of core       C:\3DAQ\firmware\system\usb\usbdrv\usbdrv.c
                                            *                  frequencies.                                                 C:\3DAQ\firmware\system\usb\usbdrv\usbdrv.c
                                            *                  That value selected is 1800. See table below:                C:\3DAQ\firmware\system\usb\usbdrv\usbdrv.c
                                            *                  ==========================================================   C:\3DAQ\firmware\system\usb\usbdrv\usbdrv.c
                                            *                  Core Freq(MHz)      MIP         RESUME Signal Period (ms)    C:\3DAQ\firmware\system\usb\usbdrv\usbdrv.c
                                            *                  ==========================================================   C:\3DAQ\firmware\system\usb\usbdrv\usbdrv.c
                                            *                      48              12          1.05                         C:\3DAQ\firmware\system\usb\usbdrv\usbdrv.c
                                            *                       4              1           12.6                         C:\3DAQ\firmware\system\usb\usbdrv\usbdrv.c
                                            *                  ==========================================================   C:\3DAQ\firmware\system\usb\usbdrv\usbdrv.c
                                            *                  * These timing could be incorrect when using code            C:\3DAQ\firmware\system\usb\usbdrv\usbdrv.c
                                            *                    optimization or extended instruction mode,                 C:\3DAQ\firmware\system\usb\usbdrv\usbdrv.c
                                            *                    or when having other interrupts enabled.                   C:\3DAQ\firmware\system\usb\usbdrv\usbdrv.c
                                            *                    Make sure to verify using the MPLAB SIM's Stopwatch        C:\3DAQ\firmware\system\usb\usbdrv\usbdrv.c
                                            *****************************************************************************/  C:\3DAQ\firmware\system\usb\usbdrv\usbdrv.c
                                           void USBRemoteWakeup(void)                                                       C:\3DAQ\firmware\system\usb\usbdrv\usbdrv.c
                                           {                                                                                C:\3DAQ\firmware\system\usb\usbdrv\usbdrv.c
                                               static word delay_count;                                                     C:\3DAQ\firmware\system\usb\usbdrv\usbdrv.c
                                                                                                                            C:\3DAQ\firmware\system\usb\usbdrv\usbdrv.c
00143e   0100     MOVLB     0x0                if(usb_stat.RemoteWakeup == 1)          // Check if RemoteWakeup function    C:\3DAQ\firmware\system\usb\usbdrv\usbdrv.c
001440   a1f3     BTFSS     0xf3,0x0,0x1                                                                                    
001442   d00e     BRA       0x1460                                                                                          
                                               {                                       // has been enabled by the host.     C:\3DAQ\firmware\system\usb\usbdrv\usbdrv.c
001444   dff8     RCALL     0x1436                 USBWakeFromSuspend();               // Unsuspend USB modue               C:\3DAQ\firmware\system\usb\usbdrv\usbdrv.c
001446   846d     BSF       0x6d,0x2,0x0           UCONbits.RESUME = 1;                // Start RESUME signaling            C:\3DAQ\firmware\system\usb\usbdrv\usbdrv.c
                                                                                                                            C:\3DAQ\firmware\system\usb\usbdrv\usbdrv.c
                                                   /* Modifiable Section */                                                 C:\3DAQ\firmware\system\usb\usbdrv\usbdrv.c
                                                                                                                            C:\3DAQ\firmware\system\usb\usbdrv\usbdrv.c
001448   0100     MOVLB     0x0                    delay_count = 1800U;                // Set RESUME line for 1-13 ms       C:\3DAQ\firmware\system\usb\usbdrv\usbdrv.c
00144a   0e08     MOVLW     0x8                                                                                             
00144c   6ff6     MOVWF     0xf6,0x1                                                                                        
00144e   0e07     MOVLW     0x7                                                                                             
001450   6ff7     MOVWF     0xf7,0x1                                                                                        
                                                   do                                                                       C:\3DAQ\firmware\system\usb\usbdrv\usbdrv.c
                                                   {                                                                        C:\3DAQ\firmware\system\usb\usbdrv\usbdrv.c
001452   07f6     DECF      0xf6,0x1,0x1               delay_count--;                                                       C:\3DAQ\firmware\system\usb\usbdrv\usbdrv.c
001454   0e00     MOVLW     0x0                                                                                             
001456   5bf7     SUBWFB    0xf7,0x1,0x1                                                                                    
001458   51f6     MOVF      0xf6,0x0,0x1           }while(delay_count);                                                     C:\3DAQ\firmware\system\usb\usbdrv\usbdrv.c
00145a   11f7     IORWF     0xf7,0x0,0x1                                                                                    
00145c   e1fa     BNZ       0x1452                                                                                          
                                                                                                                            C:\3DAQ\firmware\system\usb\usbdrv\usbdrv.c
                                                   /* End Modifiable Section */                                             C:\3DAQ\firmware\system\usb\usbdrv\usbdrv.c
                                                                                                                            C:\3DAQ\firmware\system\usb\usbdrv\usbdrv.c
00145e   946d     BCF       0x6d,0x2,0x0           UCONbits.RESUME = 0;                                                     C:\3DAQ\firmware\system\usb\usbdrv\usbdrv.c
                                               }//endif                                                                     C:\3DAQ\firmware\system\usb\usbdrv\usbdrv.c
001460   0012     RETURN    0x0            }//end USBRemoteWakeup                                                           C:\3DAQ\firmware\system\usb\usbdrv\usbdrv.c
                                                                                                                            C:\3DAQ\firmware\system\usb\usbdrv\usbdrv.c
                                           /******************************************************************************  C:\3DAQ\firmware\system\usb\usbdrv\usbdrv.c
                                            * Function:        void USB_SOF_Handler(void)                                   C:\3DAQ\firmware\system\usb\usbdrv\usbdrv.c
                                            *                                                                               C:\3DAQ\firmware\system\usb\usbdrv\usbdrv.c
                                            * PreCondition:    None                                                         C:\3DAQ\firmware\system\usb\usbdrv\usbdrv.c
                                            *                                                                               C:\3DAQ\firmware\system\usb\usbdrv\usbdrv.c
                                            * Input:           None                                                         C:\3DAQ\firmware\system\usb\usbdrv\usbdrv.c
                                            *                                                                               C:\3DAQ\firmware\system\usb\usbdrv\usbdrv.c
                                            * Output:          None                                                         C:\3DAQ\firmware\system\usb\usbdrv\usbdrv.c
                                            *                                                                               C:\3DAQ\firmware\system\usb\usbdrv\usbdrv.c
                                            * Side Effects:    None                                                         C:\3DAQ\firmware\system\usb\usbdrv\usbdrv.c
                                            *                                                                               C:\3DAQ\firmware\system\usb\usbdrv\usbdrv.c
                                            * Overview:        The USB host sends out a SOF packet to full-speed devices    C:\3DAQ\firmware\system\usb\usbdrv\usbdrv.c
                                            *                  every 1 ms. This interrupt may be useful for isochronous     C:\3DAQ\firmware\system\usb\usbdrv\usbdrv.c
                                            *                  pipes. End designers should implement callback routine       C:\3DAQ\firmware\system\usb\usbdrv\usbdrv.c
                                            *                  as necessary.                                                C:\3DAQ\firmware\system\usb\usbdrv\usbdrv.c
                                            *                                                                               C:\3DAQ\firmware\system\usb\usbdrv\usbdrv.c
                                            * Note:            None                                                         C:\3DAQ\firmware\system\usb\usbdrv\usbdrv.c
                                            *****************************************************************************/  C:\3DAQ\firmware\system\usb\usbdrv\usbdrv.c
                                           void USB_SOF_Handler(void)                                                       C:\3DAQ\firmware\system\usb\usbdrv\usbdrv.c
                                           {                                                                                C:\3DAQ\firmware\system\usb\usbdrv\usbdrv.c
                                               /* Callback routine here */                                                  C:\3DAQ\firmware\system\usb\usbdrv\usbdrv.c
                                                                                                                            C:\3DAQ\firmware\system\usb\usbdrv\usbdrv.c
001462   9c68     BCF       0x68,0x6,0x0       UIRbits.SOFIF = 0;                                                           C:\3DAQ\firmware\system\usb\usbdrv\usbdrv.c
001464   0012     RETURN    0x0            }//end USB_SOF_Handler                                                           C:\3DAQ\firmware\system\usb\usbdrv\usbdrv.c
                                                                                                                            C:\3DAQ\firmware\system\usb\usbdrv\usbdrv.c
                                           /******************************************************************************  C:\3DAQ\firmware\system\usb\usbdrv\usbdrv.c
                                            * Function:        void USBStallHandler(void)                                   C:\3DAQ\firmware\system\usb\usbdrv\usbdrv.c
                                            *                                                                               C:\3DAQ\firmware\system\usb\usbdrv\usbdrv.c
                                            * PreCondition:    A STALL packet is sent to the host by the SIE.               C:\3DAQ\firmware\system\usb\usbdrv\usbdrv.c
                                            *                                                                               C:\3DAQ\firmware\system\usb\usbdrv\usbdrv.c
                                            * Input:           None                                                         C:\3DAQ\firmware\system\usb\usbdrv\usbdrv.c
                                            *                                                                               C:\3DAQ\firmware\system\usb\usbdrv\usbdrv.c
                                            * Output:          None                                                         C:\3DAQ\firmware\system\usb\usbdrv\usbdrv.c
                                            *                                                                               C:\3DAQ\firmware\system\usb\usbdrv\usbdrv.c
                                            * Side Effects:    None                                                         C:\3DAQ\firmware\system\usb\usbdrv\usbdrv.c
                                            *                                                                               C:\3DAQ\firmware\system\usb\usbdrv\usbdrv.c
                                            * Overview:        The STALLIF is set anytime the SIE sends out a STALL         C:\3DAQ\firmware\system\usb\usbdrv\usbdrv.c
                                            *                  packet regardless of which endpoint causes it.               C:\3DAQ\firmware\system\usb\usbdrv\usbdrv.c
                                            *                  A Setup transaction overrides the STALL function. A stalled  C:\3DAQ\firmware\system\usb\usbdrv\usbdrv.c
                                            *                  endpoint stops stalling once it receives a setup packet.     C:\3DAQ\firmware\system\usb\usbdrv\usbdrv.c
                                            *                  In this case, the SIE will accepts the Setup packet and      C:\3DAQ\firmware\system\usb\usbdrv\usbdrv.c
                                            *                  set the TRNIF flag to notify the firmware. STALL function    C:\3DAQ\firmware\system\usb\usbdrv\usbdrv.c
                                            *                  for that particular endpoint pipe will be automatically      C:\3DAQ\firmware\system\usb\usbdrv\usbdrv.c
                                            *                  disabled (direction specific).                               C:\3DAQ\firmware\system\usb\usbdrv\usbdrv.c
                                            *                                                                               C:\3DAQ\firmware\system\usb\usbdrv\usbdrv.c
                                            *                  There are a few reasons for an endpoint to be stalled.       C:\3DAQ\firmware\system\usb\usbdrv\usbdrv.c
                                            *                  1. When a non-supported USB request is received.             C:\3DAQ\firmware\system\usb\usbdrv\usbdrv.c
                                            *                     Example: GET_DESCRIPTOR(DEVICE_QUALIFIER)                 C:\3DAQ\firmware\system\usb\usbdrv\usbdrv.c
                                            *                  2. When an endpoint is currently halted.                     C:\3DAQ\firmware\system\usb\usbdrv\usbdrv.c
                                            *                  3. When the device class specifies that an endpoint must     C:\3DAQ\firmware\system\usb\usbdrv\usbdrv.c
                                            *                     stall in response to a specific event.                    C:\3DAQ\firmware\system\usb\usbdrv\usbdrv.c
                                            *                     Example: Mass Storage Device Class                        C:\3DAQ\firmware\system\usb\usbdrv\usbdrv.c
                                            *                              If the CBW is not valid, the device shall        C:\3DAQ\firmware\system\usb\usbdrv\usbdrv.c
                                            *                              STALL the Bulk-In pipe.                          C:\3DAQ\firmware\system\usb\usbdrv\usbdrv.c
                                            *                              See USB Mass Storage Class Bulk-only Transport   C:\3DAQ\firmware\system\usb\usbdrv\usbdrv.c
                                            *                              Specification for more details.                  C:\3DAQ\firmware\system\usb\usbdrv\usbdrv.c
                                            *                                                                               C:\3DAQ\firmware\system\usb\usbdrv\usbdrv.c
                                            * Note:            UEPn.EPSTALL can be scanned to see which endpoint causes     C:\3DAQ\firmware\system\usb\usbdrv\usbdrv.c
                                            *                  the stall event.                                             C:\3DAQ\firmware\system\usb\usbdrv\usbdrv.c
                                            *                  If                                                           C:\3DAQ\firmware\system\usb\usbdrv\usbdrv.c
                                            *****************************************************************************/  C:\3DAQ\firmware\system\usb\usbdrv\usbdrv.c
                                           void USBStallHandler(void)                                                       C:\3DAQ\firmware\system\usb\usbdrv\usbdrv.c
                                           {                                                                                C:\3DAQ\firmware\system\usb\usbdrv\usbdrv.c
                                               /*                                                                           C:\3DAQ\firmware\system\usb\usbdrv\usbdrv.c
                                                * Does not really have to do anything here,                                 C:\3DAQ\firmware\system\usb\usbdrv\usbdrv.c
                                                * even for the control endpoint.                                            C:\3DAQ\firmware\system\usb\usbdrv\usbdrv.c
                                                * All BDs of Endpoint 0 are owned by SIE right now,                         C:\3DAQ\firmware\system\usb\usbdrv\usbdrv.c
                                                * but once a Setup Transaction is received, the ownership                   C:\3DAQ\firmware\system\usb\usbdrv\usbdrv.c
                                                * for EP0_OUT will be returned to CPU.                                      C:\3DAQ\firmware\system\usb\usbdrv\usbdrv.c
                                                * When the Setup Transaction is serviced, the ownership                     C:\3DAQ\firmware\system\usb\usbdrv\usbdrv.c
                                                * for EP0_IN will then be forced back to CPU by firmware.                   C:\3DAQ\firmware\system\usb\usbdrv\usbdrv.c
                                                *                                                                           C:\3DAQ\firmware\system\usb\usbdrv\usbdrv.c
                                                * NOTE: Above description is not quite true at this point.                  C:\3DAQ\firmware\system\usb\usbdrv\usbdrv.c
                                                *       It seems the SIE never returns the UOWN bit to CPU,                 C:\3DAQ\firmware\system\usb\usbdrv\usbdrv.c
                                                *       and a TRNIF is never generated upon successful                      C:\3DAQ\firmware\system\usb\usbdrv\usbdrv.c
                                                *       reception of a SETUP transaction.                                   C:\3DAQ\firmware\system\usb\usbdrv\usbdrv.c
                                                *       Firmware work-around is implemented below.                          C:\3DAQ\firmware\system\usb\usbdrv\usbdrv.c
                                                */                                                                          C:\3DAQ\firmware\system\usb\usbdrv\usbdrv.c
001466   a070     BTFSS     0x70,0x0,0x0       if(UEP0bits.EPSTALL == 1)                                                    C:\3DAQ\firmware\system\usb\usbdrv\usbdrv.c
001468   d003     BRA       0x1470                                                                                          
                                               {                                                                            C:\3DAQ\firmware\system\usb\usbdrv\usbdrv.c
00146a   ecae     CALL      0x135c,0x0             USBPrepareForNextSetupTrf();        // Firmware Work-Around              C:\3DAQ\firmware\system\usb\usbdrv\usbdrv.c
00146c   f009                                                                                                               
00146e   9070     BCF       0x70,0x0,0x0           UEP0bits.EPSTALL = 0;                                                    C:\3DAQ\firmware\system\usb\usbdrv\usbdrv.c
                                               }                                                                            C:\3DAQ\firmware\system\usb\usbdrv\usbdrv.c
001470   9a68     BCF       0x68,0x5,0x0       UIRbits.STALLIF = 0;                                                         C:\3DAQ\firmware\system\usb\usbdrv\usbdrv.c
001472   0012     RETURN    0x0            }//end USBStallHandler                                                           C:\3DAQ\firmware\system\usb\usbdrv\usbdrv.c
                                                                                                                            C:\3DAQ\firmware\system\usb\usbdrv\usbdrv.c
                                           /******************************************************************************  C:\3DAQ\firmware\system\usb\usbdrv\usbdrv.c
                                            * Function:        void USBErrorHandler(void)                                   C:\3DAQ\firmware\system\usb\usbdrv\usbdrv.c
                                            *                                                                               C:\3DAQ\firmware\system\usb\usbdrv\usbdrv.c
                                            * PreCondition:    None                                                         C:\3DAQ\firmware\system\usb\usbdrv\usbdrv.c
                                            *                                                                               C:\3DAQ\firmware\system\usb\usbdrv\usbdrv.c
                                            * Input:           None                                                         C:\3DAQ\firmware\system\usb\usbdrv\usbdrv.c
                                            *                                                                               C:\3DAQ\firmware\system\usb\usbdrv\usbdrv.c
                                            * Output:          None                                                         C:\3DAQ\firmware\system\usb\usbdrv\usbdrv.c
                                            *                                                                               C:\3DAQ\firmware\system\usb\usbdrv\usbdrv.c
                                            * Side Effects:    None                                                         C:\3DAQ\firmware\system\usb\usbdrv\usbdrv.c
                                            *                                                                               C:\3DAQ\firmware\system\usb\usbdrv\usbdrv.c
                                            * Overview:        The purpose of this interrupt is mainly for debugging        C:\3DAQ\firmware\system\usb\usbdrv\usbdrv.c
                                            *                  during development. Check UEIR to see which error causes     C:\3DAQ\firmware\system\usb\usbdrv\usbdrv.c
                                            *                  the interrupt.                                               C:\3DAQ\firmware\system\usb\usbdrv\usbdrv.c
                                            *                                                                               C:\3DAQ\firmware\system\usb\usbdrv\usbdrv.c
                                            * Note:            None                                                         C:\3DAQ\firmware\system\usb\usbdrv\usbdrv.c
                                            *****************************************************************************/  C:\3DAQ\firmware\system\usb\usbdrv\usbdrv.c
                                           void USBErrorHandler(void)                                                       C:\3DAQ\firmware\system\usb\usbdrv\usbdrv.c
                                           {                                                                                C:\3DAQ\firmware\system\usb\usbdrv\usbdrv.c
001474   9268     BCF       0x68,0x1,0x0       UIRbits.UERRIF = 0;                                                          C:\3DAQ\firmware\system\usb\usbdrv\usbdrv.c
001476   0012     RETURN    0x0            }//end USBErrorHandler                                                           C:\3DAQ\firmware\system\usb\usbdrv\usbdrv.c
                                                                                                                            C:\3DAQ\firmware\system\usb\usbdrv\usbdrv.c
                                           /******************************************************************************  C:\3DAQ\firmware\system\usb\usbdrv\usbdrv.c
                                            * Function:        void USBProtocolResetHandler(void)                           C:\3DAQ\firmware\system\usb\usbdrv\usbdrv.c
                                            *                                                                               C:\3DAQ\firmware\system\usb\usbdrv\usbdrv.c
                                            * PreCondition:    A USB bus reset is received from the host.                   C:\3DAQ\firmware\system\usb\usbdrv\usbdrv.c
                                            *                                                                               C:\3DAQ\firmware\system\usb\usbdrv\usbdrv.c
                                            * Input:           None                                                         C:\3DAQ\firmware\system\usb\usbdrv\usbdrv.c
                                            *                                                                               C:\3DAQ\firmware\system\usb\usbdrv\usbdrv.c
                                            * Output:          None                                                         C:\3DAQ\firmware\system\usb\usbdrv\usbdrv.c
                                            *                                                                               C:\3DAQ\firmware\system\usb\usbdrv\usbdrv.c
                                            * Side Effects:    Currently, this routine flushes any pending USB              C:\3DAQ\firmware\system\usb\usbdrv\usbdrv.c
                                            *                  transactions. It empties out the USTAT FIFO. This action     C:\3DAQ\firmware\system\usb\usbdrv\usbdrv.c
                                            *                  might not be desirable in some applications.                 C:\3DAQ\firmware\system\usb\usbdrv\usbdrv.c
                                            *                                                                               C:\3DAQ\firmware\system\usb\usbdrv\usbdrv.c
                                            * Overview:        Once a USB bus reset is received from the host, this         C:\3DAQ\firmware\system\usb\usbdrv\usbdrv.c
                                            *                  routine should be called. It resets the device address to    C:\3DAQ\firmware\system\usb\usbdrv\usbdrv.c
                                            *                  zero, disables all non-EP0 endpoints, initializes EP0 to     C:\3DAQ\firmware\system\usb\usbdrv\usbdrv.c
                                            *                  be ready for default communication, clears all USB           C:\3DAQ\firmware\system\usb\usbdrv\usbdrv.c
                                            *                  interrupt flags, unmasks applicable USB interrupts, and      C:\3DAQ\firmware\system\usb\usbdrv\usbdrv.c
                                            *                  reinitializes internal state-machine variables.              C:\3DAQ\firmware\system\usb\usbdrv\usbdrv.c
                                            *                                                                               C:\3DAQ\firmware\system\usb\usbdrv\usbdrv.c
                                            * Note:            None                                                         C:\3DAQ\firmware\system\usb\usbdrv\usbdrv.c
                                            *****************************************************************************/  C:\3DAQ\firmware\system\usb\usbdrv\usbdrv.c
                                           void USBProtocolResetHandler(void)                                               C:\3DAQ\firmware\system\usb\usbdrv\usbdrv.c
                                           {                                                                                C:\3DAQ\firmware\system\usb\usbdrv\usbdrv.c
001478   6a6a     CLRF      0x6a,0x0           UEIR = 0;                       // Clear all USB error flags                 C:\3DAQ\firmware\system\usb\usbdrv\usbdrv.c
00147a   6a68     CLRF      0x68,0x0           UIR = 0;                        // Clears all USB interrupts                 C:\3DAQ\firmware\system\usb\usbdrv\usbdrv.c
00147c   0e9f     MOVLW     0x9f               UEIE = 0b10011111;              // Unmask all USB error interrupts           C:\3DAQ\firmware\system\usb\usbdrv\usbdrv.c
00147e   6e6b     MOVWF     0x6b,0x0                                                                                        
001480   0e7b     MOVLW     0x7b               UIE = 0b01111011;               // Enable all interrupts except ACTVIE       C:\3DAQ\firmware\system\usb\usbdrv\usbdrv.c
001482   6e69     MOVWF     0x69,0x0                                                                                        
                                                                                                                            C:\3DAQ\firmware\system\usb\usbdrv\usbdrv.c
001484   6a6e     CLRF      0x6e,0x0           UADDR = 0x00;                   // Reset to default address                  C:\3DAQ\firmware\system\usb\usbdrv\usbdrv.c
001486   0e0f     MOVLW     0xf                mDisableEP1to15();              // Reset all non-EP0 UEPn registers          C:\3DAQ\firmware\system\usb\usbdrv\usbdrv.c
001488   6ee6     MOVWF     0xe6,0x0                                                                                        
00148a   0e71     MOVLW     0x71                                                                                            
00148c   6ee6     MOVWF     0xe6,0x0                                                                                        
00148e   0e0f     MOVLW     0xf                                                                                             
001490   6ee6     MOVWF     0xe6,0x0                                                                                        
001492   d814     RCALL     0x14bc                                                                                          
001494   52e5     MOVF      0xe5,0x1,0x0                                                                                    
001496   52e5     MOVF      0xe5,0x1,0x0                                                                                    
001498   52e5     MOVF      0xe5,0x1,0x0                                                                                    
00149a   0e16     MOVLW     0x16               UEP0 = EP_CTRL|HSHK_EN;         // Init EP0 as a Ctrl EP, see usbdrv.h       C:\3DAQ\firmware\system\usb\usbdrv\usbdrv.c
00149c   6e70     MOVWF     0x70,0x0                                                                                        
                                                                                                                            C:\3DAQ\firmware\system\usb\usbdrv\usbdrv.c
00149e   a668     BTFSS     0x68,0x3,0x0       while(UIRbits.TRNIF == 1)       // Flush any pending transactions            C:\3DAQ\firmware\system\usb\usbdrv\usbdrv.c
0014a0   d002     BRA       0x14a6                                                                                          
0014a4   d7fc     BRA       0x149e                                                                                          
0014a2   9668     BCF       0x68,0x3,0x0           UIRbits.TRNIF = 0;                                                       C:\3DAQ\firmware\system\usb\usbdrv\usbdrv.c
                                                                                                                            C:\3DAQ\firmware\system\usb\usbdrv\usbdrv.c
0014a6   986d     BCF       0x6d,0x4,0x0       UCONbits.PKTDIS = 0;            // Make sure packet processing is enabled    C:\3DAQ\firmware\system\usb\usbdrv\usbdrv.c
0014a8   ecae     CALL      0x135c,0x0         USBPrepareForNextSetupTrf();    // Declared in usbctrltrf.c                  C:\3DAQ\firmware\system\usb\usbdrv\usbdrv.c
0014aa   f009                                                                                                               
                                                                                                                            C:\3DAQ\firmware\system\usb\usbdrv\usbdrv.c
0014ac   0100     MOVLB     0x0                usb_stat.RemoteWakeup = 0;      // Default status flag to disable            C:\3DAQ\firmware\system\usb\usbdrv\usbdrv.c
0014ae   91f3     BCF       0xf3,0x0,0x1                                                                                    
0014b0   0100     MOVLB     0x0                usb_active_cfg = 0;             // Clear active configuration                C:\3DAQ\firmware\system\usb\usbdrv\usbdrv.c
0014b2   6bf4     CLRF      0xf4,0x1                                                                                        
0014b4   0100     MOVLB     0x0                usb_device_state = DEFAULT_STATE;                                            C:\3DAQ\firmware\system\usb\usbdrv\usbdrv.c
0014b6   0e03     MOVLW     0x3                                                                                             
0014b8   6ff2     MOVWF     0xf2,0x1                                                                                        
0014ba   0012     RETURN    0x0            }//end USBProtocolResetHandler                                                   C:\3DAQ\firmware\system\usb\usbdrv\usbdrv.c
                                                                                                                            C:\3DAQ\firmware\system\usb\usbdrv\usbdrv.c
                                                                                                                            C:\3DAQ\firmware\system\usb\usbdrv\usbdrv.c
                                           /* Auxiliary Function */                                                         C:\3DAQ\firmware\system\usb\usbdrv\usbdrv.c
0014bc   cfd9     MOVFF     0xfd9,0xfe6    void ClearArray(byte* startAdr,byte count)                                       C:\3DAQ\firmware\system\usb\usbdrv\usbdrv.c
0014be   ffe6                                                                                                               
0014c0   cfe1     MOVFF     0xfe1,0xfd9                                                                                     
0014c2   ffd9                                                                                                               
                                           {                                                                                C:\3DAQ\firmware\system\usb\usbdrv\usbdrv.c
0014c4   0efd     MOVLW     0xfd               *startAdr;                                                                   C:\3DAQ\firmware\system\usb\usbdrv\usbdrv.c
0014c6   cfdb     MOVFF     0xfdb,0xfe9                                                                                     
0014c8   ffe9                                                                                                               
0014ca   0efe     MOVLW     0xfe                                                                                            
0014cc   cfdb     MOVFF     0xfdb,0xfea                                                                                     
0014ce   ffea                                                                                                               
0014d0   0efc     MOVLW     0xfc               while(count)                                                                 C:\3DAQ\firmware\system\usb\usbdrv\usbdrv.c
0014d2   50db     MOVF      0xdb,0x0,0x0                                                                                    
0014d4   e004     BZ        0x14de                                                                                          
0014dc   d7f9     BRA       0x14d0                                                                                          
                                               {                                                                            C:\3DAQ\firmware\system\usb\usbdrv\usbdrv.c
                                                   _asm                                                                     C:\3DAQ\firmware\system\usb\usbdrv\usbdrv.c
0014d6   6aee     CLRF      0xee,0x0               clrf POSTINC0,0                                                          C:\3DAQ\firmware\system\usb\usbdrv\usbdrv.c
                                                   _endasm                                                                  C:\3DAQ\firmware\system\usb\usbdrv\usbdrv.c
0014d8   0efc     MOVLW     0xfc                   count--;                                                                 C:\3DAQ\firmware\system\usb\usbdrv\usbdrv.c
0014da   06db     DECF      0xdb,0x1,0x0                                                                                    
                                               }//end while                                                                 C:\3DAQ\firmware\system\usb\usbdrv\usbdrv.c
0014de   52e5     MOVF      0xe5,0x1,0x0   }//end ClearArray                                                                C:\3DAQ\firmware\system\usb\usbdrv\usbdrv.c
0014e0   cfe7     MOVFF     0xfe7,0xfd9                                                                                     
0014e2   ffd9                                                                                                               
0014e4   0012     RETURN    0x0                                                                                             
                                                                                                                            C:\3DAQ\firmware\system\usb\usbdrv\usbdrv.c
                                           /** EOF usbdrv.c *************************************************************/  C:\3DAQ\firmware\system\usb\usbdrv\usbdrv.c
                                           /** I N C L U D E S **********************************************************/  C:\3DAQ\firmware\system\usb\usb9\usb9.c
                                           #include <p18cxxx.h>                                                             C:\3DAQ\firmware\system\usb\usb9\usb9.c
                                           #include "system\typedefs.h"                                                     C:\3DAQ\firmware\system\usb\usb9\usb9.c
                                           #include "system\usb\usb.h"                                                      C:\3DAQ\firmware\system\usb\usb9\usb9.c
                                           #include "io_cfg.h"                     // Required for self_power status        C:\3DAQ\firmware\system\usb\usb9\usb9.c
                                                                                                                            C:\3DAQ\firmware\system\usb\usb9\usb9.c
                                           /** V A R I A B L E S ********************************************************/  C:\3DAQ\firmware\system\usb\usb9\usb9.c
                                           #pragma udata                                                                    C:\3DAQ\firmware\system\usb\usb9\usb9.c
                                                                                                                            C:\3DAQ\firmware\system\usb\usb9\usb9.c
                                           /** P R I V A T E  P R O T O T Y P E S ***************************************/  C:\3DAQ\firmware\system\usb\usb9\usb9.c
                                           void USBStdGetDscHandler(void);                                                  C:\3DAQ\firmware\system\usb\usb9\usb9.c
                                           void USBStdSetCfgHandler(void);                                                  C:\3DAQ\firmware\system\usb\usb9\usb9.c
                                           void USBStdGetStatusHandler(void);                                               C:\3DAQ\firmware\system\usb\usb9\usb9.c
                                           void USBStdFeatureReqHandler(void);                                              C:\3DAQ\firmware\system\usb\usb9\usb9.c
                                                                                                                            C:\3DAQ\firmware\system\usb\usb9\usb9.c
                                           /** D E C L A R A T I O N S **************************************************/  C:\3DAQ\firmware\system\usb\usb9\usb9.c
                                           #pragma code                                                                     C:\3DAQ\firmware\system\usb\usb9\usb9.c
                                           /******************************************************************************  C:\3DAQ\firmware\system\usb\usb9\usb9.c
                                            * Function:        void USBCheckStdRequest(void)                                C:\3DAQ\firmware\system\usb\usb9\usb9.c
                                            *                                                                               C:\3DAQ\firmware\system\usb\usb9\usb9.c
                                            * PreCondition:    None                                                         C:\3DAQ\firmware\system\usb\usb9\usb9.c
                                            *                                                                               C:\3DAQ\firmware\system\usb\usb9\usb9.c
                                            * Input:           None                                                         C:\3DAQ\firmware\system\usb\usb9\usb9.c
                                            *                                                                               C:\3DAQ\firmware\system\usb\usb9\usb9.c
                                            * Output:          None                                                         C:\3DAQ\firmware\system\usb\usb9\usb9.c
                                            *                                                                               C:\3DAQ\firmware\system\usb\usb9\usb9.c
                                            * Side Effects:    None                                                         C:\3DAQ\firmware\system\usb\usb9\usb9.c
                                            *                                                                               C:\3DAQ\firmware\system\usb\usb9\usb9.c
                                            * Overview:        This routine checks the setup data packet to see if it       C:\3DAQ\firmware\system\usb\usb9\usb9.c
                                            *                  knows how to handle it                                       C:\3DAQ\firmware\system\usb\usb9\usb9.c
                                            *                                                                               C:\3DAQ\firmware\system\usb\usb9\usb9.c
                                            * Note:            None                                                         C:\3DAQ\firmware\system\usb\usb9\usb9.c
                                            *****************************************************************************/  C:\3DAQ\firmware\system\usb\usb9\usb9.c
                                           void USBCheckStdRequest(void)                                                    C:\3DAQ\firmware\system\usb\usb9\usb9.c
                                           {                                                                                C:\3DAQ\firmware\system\usb\usb9\usb9.c
000dbe   0104     MOVLB     0x4                if(SetupPkt.RequestType != STANDARD) return;                                 C:\3DAQ\firmware\system\usb\usb9\usb9.c
000dc0   5118     MOVF      0x18,0x0,0x1                                                                                    
000dc2   0b60     ANDLW     0x60                                                                                            
000dc4   42e8     RRNCF     0xe8,0x1,0x0                                                                                    
000dc6   42e8     RRNCF     0xe8,0x1,0x0                                                                                    
000dc8   42e8     RRNCF     0xe8,0x1,0x0                                                                                    
000dca   42e8     RRNCF     0xe8,0x1,0x0                                                                                    
000dcc   42e8     RRNCF     0xe8,0x1,0x0                                                                                    
000dce   0900     IORLW     0x0                                                                                             
000dd0   e001     BZ        0xdd4                                                                                           
000dd2   d055     BRA       0xe7e                                                                                           
                                                                                                                            C:\3DAQ\firmware\system\usb\usb9\usb9.c
000dd4   5119     MOVF      0x19,0x0,0x1       switch(SetupPkt.bRequest)                                                    C:\3DAQ\firmware\system\usb\usb9\usb9.c
000dd6   0a07     XORLW     0x7                                                                                             
000dd8   e051     BZ        0xe7c                                                                                           
000dda   0a0b     XORLW     0xb                                                                                             
000ddc   e04f     BZ        0xe7c                                                                                           
000dde   0a07     XORLW     0x7                                                                                             
000de0   e040     BZ        0xe62                                                                                           
000de2   0a01     XORLW     0x1                                                                                             
000de4   e02c     BZ        0xe3e                                                                                           
000de6   0a0b     XORLW     0xb                                                                                             
000de8   e028     BZ        0xe3a                                                                                           
000dea   0a02     XORLW     0x2                                                                                             
000dec   e026     BZ        0xe3a                                                                                           
000dee   0a03     XORLW     0x3                                                                                             
000df0   e022     BZ        0xe36                                                                                           
000df2   0a08     XORLW     0x8                                                                                             
000df4   e012     BZ        0xe1a                                                                                           
000df6   0a01     XORLW     0x1                                                                                             
000df8   e00e     BZ        0xe16                                                                                           
000dfa   0a0f     XORLW     0xf                                                                                             
000dfc   e00a     BZ        0xe12                                                                                           
000dfe   0a03     XORLW     0x3                                                                                             
000e00   e001     BZ        0xe04                                                                                           
000e02   d03c     BRA       0xe7c                                                                                           
                                               {                                                                            C:\3DAQ\firmware\system\usb\usb9\usb9.c
                                                   case SET_ADR:                                                            C:\3DAQ\firmware\system\usb\usb9\usb9.c
000e04   0100     MOVLB     0x0                        ctrl_trf_session_owner = MUID_USB9;                                  C:\3DAQ\firmware\system\usb\usb9\usb9.c
000e06   0e01     MOVLW     0x1                                                                                             
000e08   6feb     MOVWF     0xeb,0x1                                                                                        
000e0a   0100     MOVLB     0x0                        usb_device_state = ADR_PENDING_STATE;       // Update state only     C:\3DAQ\firmware\system\usb\usb9\usb9.c
000e0c   0e04     MOVLW     0x4                                                                                             
000e0e   6ff2     MOVWF     0xf2,0x1                                                                                        
                                                       /* See USBCtrlTrfInHandler() in usbctrltrf.c for the next step */    C:\3DAQ\firmware\system\usb\usb9\usb9.c
000e10   d036     BRA       0xe7e                      break;                                                               C:\3DAQ\firmware\system\usb\usb9\usb9.c
                                                   case GET_DSC:                                                            C:\3DAQ\firmware\system\usb\usb9\usb9.c
000e12   d836     RCALL     0xe80                      USBStdGetDscHandler();                                               C:\3DAQ\firmware\system\usb\usb9\usb9.c
000e14   d034     BRA       0xe7e                      break;                                                               C:\3DAQ\firmware\system\usb\usb9\usb9.c
                                                   case SET_CFG:                                                            C:\3DAQ\firmware\system\usb\usb9\usb9.c
000e16   d890     RCALL     0xf38                      USBStdSetCfgHandler();                                               C:\3DAQ\firmware\system\usb\usb9\usb9.c
000e18   d032     BRA       0xe7e                      break;                                                               C:\3DAQ\firmware\system\usb\usb9\usb9.c
                                                   case GET_CFG:                                                            C:\3DAQ\firmware\system\usb\usb9\usb9.c
000e1a   0100     MOVLB     0x0                        ctrl_trf_session_owner = MUID_USB9;                                  C:\3DAQ\firmware\system\usb\usb9\usb9.c
000e1c   0e01     MOVLW     0x1                                                                                             
000e1e   6feb     MOVWF     0xeb,0x1                                                                                        
000e20   0100     MOVLB     0x0                        pSrc.bRam = (byte*)&usb_active_cfg;         // Set Source            C:\3DAQ\firmware\system\usb\usb9\usb9.c
000e22   0ef4     MOVLW     0xf4                                                                                            
000e24   6fec     MOVWF     0xec,0x1                                                                                        
000e26   0e00     MOVLW     0x0                                                                                             
000e28   6fed     MOVWF     0xed,0x1                                                                                        
000e2a   0100     MOVLB     0x0                        usb_stat.ctrl_trf_mem = _RAM;               // Set memory type       C:\3DAQ\firmware\system\usb\usb9\usb9.c
000e2c   93f3     BCF       0xf3,0x1,0x1                                                                                    
000e2e   0100     MOVLB     0x0                        LSB(wCount) = 1;                            // Set data count        C:\3DAQ\firmware\system\usb\usb9\usb9.c
000e30   0e01     MOVLW     0x1                                                                                             
000e32   6ff0     MOVWF     0xf0,0x1                                                                                        
000e34   d024     BRA       0xe7e                      break;                                                               C:\3DAQ\firmware\system\usb\usb9\usb9.c
                                                   case GET_STATUS:                                                         C:\3DAQ\firmware\system\usb\usb9\usb9.c
000e36   d8a8     RCALL     0xf88                      USBStdGetStatusHandler();                                            C:\3DAQ\firmware\system\usb\usb9\usb9.c
000e38   d022     BRA       0xe7e                      break;                                                               C:\3DAQ\firmware\system\usb\usb9\usb9.c
                                                   case CLR_FEATURE:                                                        C:\3DAQ\firmware\system\usb\usb9\usb9.c
                                                   case SET_FEATURE:                                                        C:\3DAQ\firmware\system\usb\usb9\usb9.c
000e3a   d8f4     RCALL     0x1024                     USBStdFeatureReqHandler();                                           C:\3DAQ\firmware\system\usb\usb9\usb9.c
000e3c   d020     BRA       0xe7e                      break;                                                               C:\3DAQ\firmware\system\usb\usb9\usb9.c
                                                   case GET_INTF:                                                           C:\3DAQ\firmware\system\usb\usb9\usb9.c
000e3e   0100     MOVLB     0x0                        ctrl_trf_session_owner = MUID_USB9;                                  C:\3DAQ\firmware\system\usb\usb9\usb9.c
000e40   0e01     MOVLW     0x1                                                                                             
000e42   6feb     MOVWF     0xeb,0x1                                                                                        
000e44   0104     MOVLB     0x4                        pSrc.bRam = (byte*)&usb_alt_intf+SetupPkt.bIntfID;  // Set source    C:\3DAQ\firmware\system\usb\usb9\usb9.c
000e46   511c     MOVF      0x1c,0x0,0x1                                                                                    
000e48   0100     MOVLB     0x0                                                                                             
000e4a   6fec     MOVWF     0xec,0x1                                                                                        
000e4c   6bed     CLRF      0xed,0x1                                                                                        
000e4e   0ef5     MOVLW     0xf5                                                                                            
000e50   27ec     ADDWF     0xec,0x1,0x1                                                                                    
000e52   0e00     MOVLW     0x0                                                                                             
000e54   23ed     ADDWFC    0xed,0x1,0x1                                                                                    
000e56   0100     MOVLB     0x0                        usb_stat.ctrl_trf_mem = _RAM;               // Set memory type       C:\3DAQ\firmware\system\usb\usb9\usb9.c
000e58   93f3     BCF       0xf3,0x1,0x1                                                                                    
000e5a   0100     MOVLB     0x0                        LSB(wCount) = 1;                            // Set data count        C:\3DAQ\firmware\system\usb\usb9\usb9.c
000e5c   0e01     MOVLW     0x1                                                                                             
000e5e   6ff0     MOVWF     0xf0,0x1                                                                                        
000e60   d00e     BRA       0xe7e                      break;                                                               C:\3DAQ\firmware\system\usb\usb9\usb9.c
                                                   case SET_INTF:                                                           C:\3DAQ\firmware\system\usb\usb9\usb9.c
000e62   0100     MOVLB     0x0                        ctrl_trf_session_owner = MUID_USB9;                                  C:\3DAQ\firmware\system\usb\usb9\usb9.c
000e64   0e01     MOVLW     0x1                                                                                             
000e66   6feb     MOVWF     0xeb,0x1                                                                                        
000e68   0104     MOVLB     0x4                        usb_alt_intf[SetupPkt.bIntfID] = SetupPkt.bAltID;                    C:\3DAQ\firmware\system\usb\usb9\usb9.c
000e6a   511c     MOVF      0x1c,0x0,0x1                                                                                    
000e6c   6aea     CLRF      0xea,0x0                                                                                        
000e6e   0ff5     ADDLW     0xf5                                                                                            
000e70   6ee9     MOVWF     0xe9,0x0                                                                                        
000e72   0e00     MOVLW     0x0                                                                                             
000e74   22ea     ADDWFC    0xea,0x1,0x0                                                                                    
000e76   c41a     MOVFF     0x41a,0xfef                                                                                     
000e78   ffef                                                                                                               
000e7a   d001     BRA       0xe7e                      break;                                                               C:\3DAQ\firmware\system\usb\usb9\usb9.c
                                                   case SET_DSC:                                                            C:\3DAQ\firmware\system\usb\usb9\usb9.c
                                                   case SYNCH_FRAME:                                                        C:\3DAQ\firmware\system\usb\usb9\usb9.c
                                                   default:                                                                 C:\3DAQ\firmware\system\usb\usb9\usb9.c
000e7c   d000     BRA       0xe7e                      break;                                                               C:\3DAQ\firmware\system\usb\usb9\usb9.c
                                               }//end switch                                                                C:\3DAQ\firmware\system\usb\usb9\usb9.c
                                                                                                                            C:\3DAQ\firmware\system\usb\usb9\usb9.c
000e7e   0012     RETURN    0x0            }//end USBCheckStdRequest                                                        C:\3DAQ\firmware\system\usb\usb9\usb9.c
                                                                                                                            C:\3DAQ\firmware\system\usb\usb9\usb9.c
                                           /******************************************************************************  C:\3DAQ\firmware\system\usb\usb9\usb9.c
                                            * Function:        void USBStdGetDscHandler(void)                               C:\3DAQ\firmware\system\usb\usb9\usb9.c
                                            *                                                                               C:\3DAQ\firmware\system\usb\usb9\usb9.c
                                            * PreCondition:    None                                                         C:\3DAQ\firmware\system\usb\usb9\usb9.c
                                            *                                                                               C:\3DAQ\firmware\system\usb\usb9\usb9.c
                                            * Input:           None                                                         C:\3DAQ\firmware\system\usb\usb9\usb9.c
                                            *                                                                               C:\3DAQ\firmware\system\usb\usb9\usb9.c
                                            * Output:          None                                                         C:\3DAQ\firmware\system\usb\usb9\usb9.c
                                            *                                                                               C:\3DAQ\firmware\system\usb\usb9\usb9.c
                                            * Side Effects:    None                                                         C:\3DAQ\firmware\system\usb\usb9\usb9.c
                                            *                                                                               C:\3DAQ\firmware\system\usb\usb9\usb9.c
                                            * Overview:        This routine handles the standard GET_DESCRIPTOR request.    C:\3DAQ\firmware\system\usb\usb9\usb9.c
                                            *                  It utilizes tables dynamically looks up descriptor size.     C:\3DAQ\firmware\system\usb\usb9\usb9.c
                                            *                  This routine should never have to be modified if the tables  C:\3DAQ\firmware\system\usb\usb9\usb9.c
                                            *                  in usbdsc.c are declared correctly.                          C:\3DAQ\firmware\system\usb\usb9\usb9.c
                                            *                                                                               C:\3DAQ\firmware\system\usb\usb9\usb9.c
                                            * Note:            None                                                         C:\3DAQ\firmware\system\usb\usb9\usb9.c
                                            *****************************************************************************/  C:\3DAQ\firmware\system\usb\usb9\usb9.c
                                           void USBStdGetDscHandler(void)                                                   C:\3DAQ\firmware\system\usb\usb9\usb9.c
                                           {                                                                                C:\3DAQ\firmware\system\usb\usb9\usb9.c
000e80   0e80     MOVLW     0x80               if(SetupPkt.bmRequestType == 0x80)                                           C:\3DAQ\firmware\system\usb\usb9\usb9.c
000e82   0104     MOVLB     0x4                                                                                             
000e84   5d18     SUBWF     0x18,0x0,0x1                                                                                    
000e86   e157     BNZ       0xf36                                                                                           
                                               {                                                                            C:\3DAQ\firmware\system\usb\usb9\usb9.c
000e88   511b     MOVF      0x1b,0x0,0x1           switch(SetupPkt.bDscType)                                                C:\3DAQ\firmware\system\usb\usb9\usb9.c
000e8a   0a03     XORLW     0x3                                                                                             
000e8c   e034     BZ        0xef6                                                                                           
000e8e   0a01     XORLW     0x1                                                                                             
000e90   e010     BZ        0xeb2                                                                                           
000e92   0a03     XORLW     0x3                                                                                             
000e94   e001     BZ        0xe98                                                                                           
000e96   d04d     BRA       0xf32                                                                                           
                                                   {                                                                        C:\3DAQ\firmware\system\usb\usb9\usb9.c
                                                       case DSC_DEV:                                                        C:\3DAQ\firmware\system\usb\usb9\usb9.c
000e98   0100     MOVLB     0x0                            ctrl_trf_session_owner = MUID_USB9;                              C:\3DAQ\firmware\system\usb\usb9\usb9.c
000e9a   0e01     MOVLW     0x1                                                                                             
000e9c   6feb     MOVWF     0xeb,0x1                                                                                        
000e9e   0100     MOVLB     0x0                            pSrc.bRom = (rom byte*)&device_dsc;                              C:\3DAQ\firmware\system\usb\usb9\usb9.c
000ea0   0e04     MOVLW     0x4                                                                                             
000ea2   6fec     MOVWF     0xec,0x1                                                                                        
000ea4   0e16     MOVLW     0x16                                                                                            
000ea6   6fed     MOVWF     0xed,0x1                                                                                        
000ea8   0e12     MOVLW     0x12                           wCount._word = sizeof(device_dsc);          // Set data count    C:\3DAQ\firmware\system\usb\usb9\usb9.c
000eaa   0100     MOVLB     0x0                                                                                             
000eac   6ff0     MOVWF     0xf0,0x1                                                                                        
000eae   6bf1     CLRF      0xf1,0x1                                                                                        
000eb0   d040     BRA       0xf32                          break;                                                           C:\3DAQ\firmware\system\usb\usb9\usb9.c
                                                       case DSC_CFG:                                                        C:\3DAQ\firmware\system\usb\usb9\usb9.c
000eb2   0100     MOVLB     0x0                            ctrl_trf_session_owner = MUID_USB9;                              C:\3DAQ\firmware\system\usb\usb9\usb9.c
000eb4   0e01     MOVLW     0x1                                                                                             
000eb6   6feb     MOVWF     0xeb,0x1                                                                                        
000eb8   0104     MOVLB     0x4                            pSrc.bRom = *(USB_CD_Ptr+SetupPkt.bDscIndex);                    C:\3DAQ\firmware\system\usb\usb9\usb9.c
000eba   511a     MOVF      0x1a,0x0,0x1                                                                                    
000ebc   6ef6     MOVWF     0xf6,0x0                                                                                        
000ebe   6af7     CLRF      0xf7,0x0                                                                                        
000ec0   90d8     BCF       0xd8,0x0,0x0                                                                                    
000ec2   36f6     RLCF      0xf6,0x1,0x0                                                                                    
000ec4   36f7     RLCF      0xf7,0x1,0x0                                                                                    
000ec6   0eb2     MOVLW     0xb2                                                                                            
000ec8   26f6     ADDWF     0xf6,0x1,0x0                                                                                    
000eca   0e16     MOVLW     0x16                                                                                            
000ecc   22f7     ADDWFC    0xf7,0x1,0x0                                                                                    
000ece   0009     TBLRDPOSTINC                                                                                              
000ed0   cff5     MOVFF     0xff5,0xec                                                                                      
000ed2   f0ec                                                                                                               
000ed4   000a     TBLRDPOSTDEC                                                                                              
000ed6   cff5     MOVFF     0xff5,0xed                                                                                      
000ed8   f0ed                                                                                                               
000eda   0e02     MOVLW     0x2                            wCount._word = *(pSrc.wRom+1);              // Set data count    C:\3DAQ\firmware\system\usb\usb9\usb9.c
000edc   0100     MOVLB     0x0                                                                                             
000ede   6af7     CLRF      0xf7,0x0                                                                                        
000ee0   25ec     ADDWF     0xec,0x0,0x1                                                                                    
000ee2   6ef6     MOVWF     0xf6,0x0                                                                                        
000ee4   51ed     MOVF      0xed,0x0,0x1                                                                                    
000ee6   22f7     ADDWFC    0xf7,0x1,0x0                                                                                    
000ee8   0009     TBLRDPOSTINC                                                                                              
000eea   cff5     MOVFF     0xff5,0xf0                                                                                      
000eec   f0f0                                                                                                               
000eee   000a     TBLRDPOSTDEC                                                                                              
000ef0   cff5     MOVFF     0xff5,0xf1                                                                                      
000ef2   f0f1                                                                                                               
000ef4   d01e     BRA       0xf32                          break;                                                           C:\3DAQ\firmware\system\usb\usb9\usb9.c
                                                       case DSC_STR:                                                        C:\3DAQ\firmware\system\usb\usb9\usb9.c
000ef6   0100     MOVLB     0x0                            ctrl_trf_session_owner = MUID_USB9;                              C:\3DAQ\firmware\system\usb\usb9\usb9.c
000ef8   0e01     MOVLW     0x1                                                                                             
000efa   6feb     MOVWF     0xeb,0x1                                                                                        
000efc   0104     MOVLB     0x4                            pSrc.bRom = *(USB_SD_Ptr+SetupPkt.bDscIndex);                    C:\3DAQ\firmware\system\usb\usb9\usb9.c
000efe   511a     MOVF      0x1a,0x0,0x1                                                                                    
000f00   6ef6     MOVWF     0xf6,0x0                                                                                        
000f02   6af7     CLRF      0xf7,0x0                                                                                        
000f04   90d8     BCF       0xd8,0x0,0x0                                                                                    
000f06   36f6     RLCF      0xf6,0x1,0x0                                                                                    
000f08   36f7     RLCF      0xf7,0x1,0x0                                                                                    
000f0a   0eb6     MOVLW     0xb6                                                                                            
000f0c   26f6     ADDWF     0xf6,0x1,0x0                                                                                    
000f0e   0e16     MOVLW     0x16                                                                                            
000f10   22f7     ADDWFC    0xf7,0x1,0x0                                                                                    
000f12   0009     TBLRDPOSTINC                                                                                              
000f14   cff5     MOVFF     0xff5,0xec                                                                                      
000f16   f0ec                                                                                                               
000f18   000a     TBLRDPOSTDEC                                                                                              
000f1a   cff5     MOVFF     0xff5,0xed                                                                                      
000f1c   f0ed                                                                                                               
000f1e   c0ec     MOVFF     0xec,0xff6                     wCount._word = *pSrc.bRom;                  // Set data count    C:\3DAQ\firmware\system\usb\usb9\usb9.c
000f20   fff6                                                                                                               
000f22   c0ed     MOVFF     0xed,0xff7                                                                                      
000f24   fff7                                                                                                               
000f26   0008     TBLRD                                                                                                     
000f28   50f5     MOVF      0xf5,0x0,0x0                                                                                    
000f2a   0100     MOVLB     0x0                                                                                             
000f2c   6ff0     MOVWF     0xf0,0x1                                                                                        
000f2e   6bf1     CLRF      0xf1,0x1                                                                                        
000f30   d000     BRA       0xf32                          break;                                                           C:\3DAQ\firmware\system\usb\usb9\usb9.c
                                                   }//end switch                                                            C:\3DAQ\firmware\system\usb\usb9\usb9.c
                                                                                                                            C:\3DAQ\firmware\system\usb\usb9\usb9.c
000f32   0100     MOVLB     0x0                    usb_stat.ctrl_trf_mem = _ROM;                       // Set memory type   C:\3DAQ\firmware\system\usb\usb9\usb9.c
000f34   83f3     BSF       0xf3,0x1,0x1                                                                                    
                                               }//end if                                                                    C:\3DAQ\firmware\system\usb\usb9\usb9.c
000f36   0012     RETURN    0x0            }//end USBStdGetDscHandler                                                       C:\3DAQ\firmware\system\usb\usb9\usb9.c
                                                                                                                            C:\3DAQ\firmware\system\usb\usb9\usb9.c
                                           /******************************************************************************  C:\3DAQ\firmware\system\usb\usb9\usb9.c
                                            * Function:        void USBStdSetCfgHandler(void)                               C:\3DAQ\firmware\system\usb\usb9\usb9.c
                                            *                                                                               C:\3DAQ\firmware\system\usb\usb9\usb9.c
                                            * PreCondition:    None                                                         C:\3DAQ\firmware\system\usb\usb9\usb9.c
                                            *                                                                               C:\3DAQ\firmware\system\usb\usb9\usb9.c
                                            * Input:           None                                                         C:\3DAQ\firmware\system\usb\usb9\usb9.c
                                            *                                                                               C:\3DAQ\firmware\system\usb\usb9\usb9.c
                                            * Output:          None                                                         C:\3DAQ\firmware\system\usb\usb9\usb9.c
                                            *                                                                               C:\3DAQ\firmware\system\usb\usb9\usb9.c
                                            * Side Effects:    None                                                         C:\3DAQ\firmware\system\usb\usb9\usb9.c
                                            *                                                                               C:\3DAQ\firmware\system\usb\usb9\usb9.c
                                            * Overview:        This routine first disables all endpoints by clearing        C:\3DAQ\firmware\system\usb\usb9\usb9.c
                                            *                  UEP registers. It then configures (initializes) endpoints    C:\3DAQ\firmware\system\usb\usb9\usb9.c
                                            *                  specified in the modifiable section.                         C:\3DAQ\firmware\system\usb\usb9\usb9.c
                                            *                                                                               C:\3DAQ\firmware\system\usb\usb9\usb9.c
                                            * Note:            None                                                         C:\3DAQ\firmware\system\usb\usb9\usb9.c
                                            *****************************************************************************/  C:\3DAQ\firmware\system\usb\usb9\usb9.c
                                           void USBStdSetCfgHandler(void)                                                   C:\3DAQ\firmware\system\usb\usb9\usb9.c
                                           {                                                                                C:\3DAQ\firmware\system\usb\usb9\usb9.c
000f38   0100     MOVLB     0x0                ctrl_trf_session_owner = MUID_USB9;                                          C:\3DAQ\firmware\system\usb\usb9\usb9.c
000f3a   0e01     MOVLW     0x1                                                                                             
000f3c   6feb     MOVWF     0xeb,0x1                                                                                        
000f3e   0e0f     MOVLW     0xf                mDisableEP1to15();                          // See usbdrv.h                  C:\3DAQ\firmware\system\usb\usb9\usb9.c
000f40   6ee6     MOVWF     0xe6,0x0                                                                                        
000f42   0e71     MOVLW     0x71                                                                                            
000f44   6ee6     MOVWF     0xe6,0x0                                                                                        
000f46   0e0f     MOVLW     0xf                                                                                             
000f48   6ee6     MOVWF     0xe6,0x0                                                                                        
000f4a   ec5e     CALL      0x14bc,0x0                                                                                      
000f4c   f00a                                                                                                               
000f4e   52e5     MOVF      0xe5,0x1,0x0                                                                                    
000f50   52e5     MOVF      0xe5,0x1,0x0                                                                                    
000f52   52e5     MOVF      0xe5,0x1,0x0                                                                                    
000f54   0e01     MOVLW     0x1                ClearArray((byte*)&usb_alt_intf,MAX_NUM_INT);                                C:\3DAQ\firmware\system\usb\usb9\usb9.c
000f56   6ee6     MOVWF     0xe6,0x0                                                                                        
000f58   0ef5     MOVLW     0xf5                                                                                            
000f5a   6ee6     MOVWF     0xe6,0x0                                                                                        
000f5c   0e00     MOVLW     0x0                                                                                             
000f5e   6ee6     MOVWF     0xe6,0x0                                                                                        
000f60   ec5e     CALL      0x14bc,0x0                                                                                      
000f62   f00a                                                                                                               
000f64   52e5     MOVF      0xe5,0x1,0x0                                                                                    
000f66   52e5     MOVF      0xe5,0x1,0x0                                                                                    
000f68   52e5     MOVF      0xe5,0x1,0x0                                                                                    
000f6a   c41a     MOVFF     0x41a,0xf4         usb_active_cfg = SetupPkt.bCfgValue;                                         C:\3DAQ\firmware\system\usb\usb9\usb9.c
000f6c   f0f4                                                                                                               
000f6e   0104     MOVLB     0x4                if(SetupPkt.bCfgValue == 0)                                                  C:\3DAQ\firmware\system\usb\usb9\usb9.c
000f70   511a     MOVF      0x1a,0x0,0x1                                                                                    
000f72   e104     BNZ       0xf7c                                                                                           
000f74   0100     MOVLB     0x0                    usb_device_state = ADDRESS_STATE;                                        C:\3DAQ\firmware\system\usb\usb9\usb9.c
000f76   0e05     MOVLW     0x5                                                                                             
000f78   6ff2     MOVWF     0xf2,0x1                                                                                        
000f7a   d005     BRA       0xf86              else                                                                         C:\3DAQ\firmware\system\usb\usb9\usb9.c
                                               {                                                                            C:\3DAQ\firmware\system\usb\usb9\usb9.c
000f7c   0100     MOVLB     0x0                    usb_device_state = CONFIGURED_STATE;                                     C:\3DAQ\firmware\system\usb\usb9\usb9.c
000f7e   0e06     MOVLW     0x6                                                                                             
000f80   6ff2     MOVWF     0xf2,0x1                                                                                        
                                                                                                                            C:\3DAQ\firmware\system\usb\usb9\usb9.c
                                                   /* Modifiable Section */                                                 C:\3DAQ\firmware\system\usb\usb9\usb9.c
                                                                                                                            C:\3DAQ\firmware\system\usb\usb9\usb9.c
                                                   #if defined(USB_USE_GEN)                // See autofiles\usbcfg.h        C:\3DAQ\firmware\system\usb\usb9\usb9.c
000f82   ec73     CALL      0x14e6,0x0             USBGenInitEP();                                                          C:\3DAQ\firmware\system\usb\usb9\usb9.c
000f84   f00a                                                                                                               
                                                   #endif                                                                   C:\3DAQ\firmware\system\usb\usb9\usb9.c
                                                                                                                            C:\3DAQ\firmware\system\usb\usb9\usb9.c
                                                   /* End modifiable section */                                             C:\3DAQ\firmware\system\usb\usb9\usb9.c
                                                                                                                            C:\3DAQ\firmware\system\usb\usb9\usb9.c
                                               }//end if(SetupPkt.bcfgValue == 0)                                           C:\3DAQ\firmware\system\usb\usb9\usb9.c
000f86   0012     RETURN    0x0            }//end USBStdSetCfgHandler                                                       C:\3DAQ\firmware\system\usb\usb9\usb9.c
                                                                                                                            C:\3DAQ\firmware\system\usb\usb9\usb9.c
                                           /******************************************************************************  C:\3DAQ\firmware\system\usb\usb9\usb9.c
                                            * Function:        void USBStdGetStatusHandler(void)                            C:\3DAQ\firmware\system\usb\usb9\usb9.c
                                            *                                                                               C:\3DAQ\firmware\system\usb\usb9\usb9.c
                                            * PreCondition:    None                                                         C:\3DAQ\firmware\system\usb\usb9\usb9.c
                                            *                                                                               C:\3DAQ\firmware\system\usb\usb9\usb9.c
                                            * Input:           None                                                         C:\3DAQ\firmware\system\usb\usb9\usb9.c
                                            *                                                                               C:\3DAQ\firmware\system\usb\usb9\usb9.c
                                            * Output:          None                                                         C:\3DAQ\firmware\system\usb\usb9\usb9.c
                                            *                                                                               C:\3DAQ\firmware\system\usb\usb9\usb9.c
                                            * Side Effects:    None                                                         C:\3DAQ\firmware\system\usb\usb9\usb9.c
                                            *                                                                               C:\3DAQ\firmware\system\usb\usb9\usb9.c
                                            * Overview:        This routine handles the standard GET_STATUS request         C:\3DAQ\firmware\system\usb\usb9\usb9.c
                                            *                                                                               C:\3DAQ\firmware\system\usb\usb9\usb9.c
                                            * Note:            None                                                         C:\3DAQ\firmware\system\usb\usb9\usb9.c
                                            *****************************************************************************/  C:\3DAQ\firmware\system\usb\usb9\usb9.c
                                           void USBStdGetStatusHandler(void)                                                C:\3DAQ\firmware\system\usb\usb9\usb9.c
                                           {                                                                                C:\3DAQ\firmware\system\usb\usb9\usb9.c
000f88   0104     MOVLB     0x4                CtrlTrfData._byte0 = 0;                         // Initialize content        C:\3DAQ\firmware\system\usb\usb9\usb9.c
000f8a   6b20     CLRF      0x20,0x1                                                                                        
000f8c   6b21     CLRF      0x21,0x1           CtrlTrfData._byte1 = 0;                                                      C:\3DAQ\firmware\system\usb\usb9\usb9.c
                                                                                                                            C:\3DAQ\firmware\system\usb\usb9\usb9.c
000f8e   0104     MOVLB     0x4                switch(SetupPkt.Recipient)                                                   C:\3DAQ\firmware\system\usb\usb9\usb9.c
000f90   5118     MOVF      0x18,0x0,0x1                                                                                    
000f92   0b1f     ANDLW     0x1f                                                                                            
000f94   0a02     XORLW     0x2                                                                                             
000f96   e014     BZ        0xfc0                                                                                           
000f98   0a03     XORLW     0x3                                                                                             
000f9a   e00e     BZ        0xfb8                                                                                           
000f9c   0a01     XORLW     0x1                                                                                             
000f9e   e001     BZ        0xfa2                                                                                           
000fa0   d033     BRA       0x1008                                                                                          
                                               {                                                                            C:\3DAQ\firmware\system\usb\usb9\usb9.c
                                                   case RCPT_DEV:                                                           C:\3DAQ\firmware\system\usb\usb9\usb9.c
000fa2   0100     MOVLB     0x0                        ctrl_trf_session_owner = MUID_USB9;                                  C:\3DAQ\firmware\system\usb\usb9\usb9.c
000fa4   0e01     MOVLW     0x1                                                                                             
000fa6   6feb     MOVWF     0xeb,0x1                                                                                        
                                                       /*                                                                   C:\3DAQ\firmware\system\usb\usb9\usb9.c
                                                        * _byte0: bit0: Self-Powered Status [0] Bus-Powered [1] Self-Powered C:\3DAQ\firmware\system\usb\usb9\usb9.c
                                                        *         bit1: RemoteWakeup        [0] Disabled    [1] Enabled     C:\3DAQ\firmware\system\usb\usb9\usb9.c
                                                        */                                                                  C:\3DAQ\firmware\system\usb\usb9\usb9.c
                                                       if(self_power == 1)                     // self_power defined in io_cfg.h C:\3DAQ\firmware\system\usb\usb9\usb9.c
000fa8   0104     MOVLB     0x4                            CtrlTrfData._byte0|=0b000000001;    // Set bit0                  C:\3DAQ\firmware\system\usb\usb9\usb9.c
000faa   8120     BSF       0x20,0x0,0x1                                                                                    
                                                                                                                            C:\3DAQ\firmware\system\usb\usb9\usb9.c
000fac   0100     MOVLB     0x0                        if(usb_stat.RemoteWakeup == 1)          // usb_stat defined in usbmmap.c C:\3DAQ\firmware\system\usb\usb9\usb9.c
000fae   a1f3     BTFSS     0xf3,0x0,0x1                                                                                    
000fb0   d002     BRA       0xfb6                                                                                           
000fb2   0104     MOVLB     0x4                            CtrlTrfData._byte0|=0b00000010;     // Set bit1                  C:\3DAQ\firmware\system\usb\usb9\usb9.c
000fb4   8320     BSF       0x20,0x1,0x1                                                                                    
000fb6   d028     BRA       0x1008                     break;                                                               C:\3DAQ\firmware\system\usb\usb9\usb9.c
                                                   case RCPT_INTF:                                                          C:\3DAQ\firmware\system\usb\usb9\usb9.c
000fb8   0100     MOVLB     0x0                        ctrl_trf_session_owner = MUID_USB9;     // No data to update         C:\3DAQ\firmware\system\usb\usb9\usb9.c
000fba   0e01     MOVLW     0x1                                                                                             
000fbc   6feb     MOVWF     0xeb,0x1                                                                                        
000fbe   d024     BRA       0x1008                     break;                                                               C:\3DAQ\firmware\system\usb\usb9\usb9.c
                                                   case RCPT_EP:                                                            C:\3DAQ\firmware\system\usb\usb9\usb9.c
000fc0   0100     MOVLB     0x0                        ctrl_trf_session_owner = MUID_USB9;                                  C:\3DAQ\firmware\system\usb\usb9\usb9.c
000fc2   0e01     MOVLW     0x1                                                                                             
000fc4   6feb     MOVWF     0xeb,0x1                                                                                        
                                                       /*                                                                   C:\3DAQ\firmware\system\usb\usb9\usb9.c
                                                        * _byte0: bit0: Halt Status [0] Not Halted [1] Halted               C:\3DAQ\firmware\system\usb\usb9\usb9.c
                                                        */                                                                  C:\3DAQ\firmware\system\usb\usb9\usb9.c
000fc6   0104     MOVLB     0x4                        pDst.bRam = (byte*)&ep0Bo+(SetupPkt.EPNum*8)+(SetupPkt.EPDir*4);     C:\3DAQ\firmware\system\usb\usb9\usb9.c
000fc8   511c     MOVF      0x1c,0x0,0x1                                                                                    
000fca   0b0f     ANDLW     0xf                                                                                             
000fcc   0d08     MULLW     0x8                                                                                             
000fce   50f3     MOVF      0xf3,0x0,0x0                                                                                    
000fd0   6a15     CLRF      0x15,0x0                                                                                        
000fd2   0f00     ADDLW     0x0                                                                                             
000fd4   6e14     MOVWF     0x14,0x0                                                                                        
000fd6   0e04     MOVLW     0x4                                                                                             
000fd8   2215     ADDWFC    0x15,0x1,0x0                                                                                    
000fda   511c     MOVF      0x1c,0x0,0x1                                                                                    
000fdc   0b80     ANDLW     0x80                                                                                            
000fde   e001     BZ        0xfe2                                                                                           
000fe0   0e01     MOVLW     0x1                                                                                             
000fe2   0d04     MULLW     0x4                                                                                             
000fe4   50f3     MOVF      0xf3,0x0,0x0                                                                                    
000fe6   0100     MOVLB     0x0                                                                                             
000fe8   2414     ADDWF     0x14,0x0,0x0                                                                                    
000fea   6fee     MOVWF     0xee,0x1                                                                                        
000fec   0e00     MOVLW     0x0                                                                                             
000fee   2015     ADDWFC    0x15,0x0,0x0                                                                                    
000ff0   6fef     MOVWF     0xef,0x1                                                                                        
000ff2   c0ee     MOVFF     0xee,0xfe9                 if(*pDst.bRam & _BSTALL)    // Use _BSTALL as a bit mask             C:\3DAQ\firmware\system\usb\usb9\usb9.c
000ff4   ffe9                                                                                                               
000ff6   c0ef     MOVFF     0xef,0xfea                                                                                      
000ff8   ffea                                                                                                               
000ffa   50ef     MOVF      0xef,0x0,0x0                                                                                    
000ffc   0b04     ANDLW     0x4                                                                                             
000ffe   e003     BZ        0x1006                                                                                          
001000   0104     MOVLB     0x4                            CtrlTrfData._byte0=0x01;// Set bit0                              C:\3DAQ\firmware\system\usb\usb9\usb9.c
001002   0e01     MOVLW     0x1                                                                                             
001004   6f20     MOVWF     0x20,0x1                                                                                        
001006   d000     BRA       0x1008                     break;                                                               C:\3DAQ\firmware\system\usb\usb9\usb9.c
                                               }//end switch                                                                C:\3DAQ\firmware\system\usb\usb9\usb9.c
                                                                                                                            C:\3DAQ\firmware\system\usb\usb9\usb9.c
001008   0100     MOVLB     0x0                if(ctrl_trf_session_owner == MUID_USB9)                                      C:\3DAQ\firmware\system\usb\usb9\usb9.c
00100a   05eb     DECF      0xeb,0x0,0x1                                                                                    
00100c   e10a     BNZ       0x1022                                                                                          
                                               {                                                                            C:\3DAQ\firmware\system\usb\usb9\usb9.c
00100e   0100     MOVLB     0x0                    pSrc.bRam = (byte*)&CtrlTrfData;            // Set Source                C:\3DAQ\firmware\system\usb\usb9\usb9.c
001010   0e20     MOVLW     0x20                                                                                            
001012   6fec     MOVWF     0xec,0x1                                                                                        
001014   0e04     MOVLW     0x4                                                                                             
001016   6fed     MOVWF     0xed,0x1                                                                                        
001018   0100     MOVLB     0x0                    usb_stat.ctrl_trf_mem = _RAM;               // Set memory type           C:\3DAQ\firmware\system\usb\usb9\usb9.c
00101a   93f3     BCF       0xf3,0x1,0x1                                                                                    
00101c   0100     MOVLB     0x0                    LSB(wCount) = 2;                            // Set data count            C:\3DAQ\firmware\system\usb\usb9\usb9.c
00101e   0e02     MOVLW     0x2                                                                                             
001020   6ff0     MOVWF     0xf0,0x1                                                                                        
                                               }//end if(...)                                                               C:\3DAQ\firmware\system\usb\usb9\usb9.c
001022   0012     RETURN    0x0            }//end USBStdGetStatusHandler                                                    C:\3DAQ\firmware\system\usb\usb9\usb9.c
                                                                                                                            C:\3DAQ\firmware\system\usb\usb9\usb9.c
                                           /******************************************************************************  C:\3DAQ\firmware\system\usb\usb9\usb9.c
                                            * Function:        void USBStdFeatureReqHandler(void)                           C:\3DAQ\firmware\system\usb\usb9\usb9.c
                                            *                                                                               C:\3DAQ\firmware\system\usb\usb9\usb9.c
                                            * PreCondition:    None                                                         C:\3DAQ\firmware\system\usb\usb9\usb9.c
                                            *                                                                               C:\3DAQ\firmware\system\usb\usb9\usb9.c
                                            * Input:           None                                                         C:\3DAQ\firmware\system\usb\usb9\usb9.c
                                            *                                                                               C:\3DAQ\firmware\system\usb\usb9\usb9.c
                                            * Output:          None                                                         C:\3DAQ\firmware\system\usb\usb9\usb9.c
                                            *                                                                               C:\3DAQ\firmware\system\usb\usb9\usb9.c
                                            * Side Effects:    None                                                         C:\3DAQ\firmware\system\usb\usb9\usb9.c
                                            *                                                                               C:\3DAQ\firmware\system\usb\usb9\usb9.c
                                            * Overview:        This routine handles the standard SET & CLEAR FEATURES       C:\3DAQ\firmware\system\usb\usb9\usb9.c
                                            *                  requests                                                     C:\3DAQ\firmware\system\usb\usb9\usb9.c
                                            *                                                                               C:\3DAQ\firmware\system\usb\usb9\usb9.c
                                            * Note:            None                                                         C:\3DAQ\firmware\system\usb\usb9\usb9.c
                                            *****************************************************************************/  C:\3DAQ\firmware\system\usb\usb9\usb9.c
                                           void USBStdFeatureReqHandler(void)                                               C:\3DAQ\firmware\system\usb\usb9\usb9.c
                                           {                                                                                C:\3DAQ\firmware\system\usb\usb9\usb9.c
001024   0104     MOVLB     0x4                if((SetupPkt.bFeature == DEVICE_REMOTE_WAKEUP)&&                             C:\3DAQ\firmware\system\usb\usb9\usb9.c
001026   051a     DECF      0x1a,0x0,0x1                                                                                    
001028   e110     BNZ       0x104a                (SetupPkt.Recipient == RCPT_DEV))                                         C:\3DAQ\firmware\system\usb\usb9\usb9.c
00102a   5118     MOVF      0x18,0x0,0x1                                                                                    
00102c   0b1f     ANDLW     0x1f                                                                                            
00102e   0900     IORLW     0x0                                                                                             
001030   e10c     BNZ       0x104a                                                                                          
                                               {                                                                            C:\3DAQ\firmware\system\usb\usb9\usb9.c
001032   0100     MOVLB     0x0                    ctrl_trf_session_owner = MUID_USB9;                                      C:\3DAQ\firmware\system\usb\usb9\usb9.c
001034   0e01     MOVLW     0x1                                                                                             
001036   6feb     MOVWF     0xeb,0x1                                                                                        
001038   0e03     MOVLW     0x3                    if(SetupPkt.bRequest == SET_FEATURE)                                     C:\3DAQ\firmware\system\usb\usb9\usb9.c
00103a   0104     MOVLB     0x4                                                                                             
00103c   5d19     SUBWF     0x19,0x0,0x1                                                                                    
00103e   e103     BNZ       0x1046                                                                                          
001040   0100     MOVLB     0x0                        usb_stat.RemoteWakeup = 1;                                           C:\3DAQ\firmware\system\usb\usb9\usb9.c
001042   81f3     BSF       0xf3,0x0,0x1                                                                                    
001044   d002     BRA       0x104a                 else                                                                     C:\3DAQ\firmware\system\usb\usb9\usb9.c
001046   0100     MOVLB     0x0                        usb_stat.RemoteWakeup = 0;                                           C:\3DAQ\firmware\system\usb\usb9\usb9.c
001048   91f3     BCF       0xf3,0x0,0x1                                                                                    
                                               }//end if                                                                    C:\3DAQ\firmware\system\usb\usb9\usb9.c
                                                                                                                            C:\3DAQ\firmware\system\usb\usb9\usb9.c
00104a   0104     MOVLB     0x4                if((SetupPkt.bFeature == ENDPOINT_HALT)&&                                    C:\3DAQ\firmware\system\usb\usb9\usb9.c
00104c   511a     MOVF      0x1a,0x0,0x1                                                                                    
00104e   e13a     BNZ       0x10c4                (SetupPkt.Recipient == RCPT_EP)&&                                         C:\3DAQ\firmware\system\usb\usb9\usb9.c
001050   5118     MOVF      0x18,0x0,0x1                                                                                    
001052   0b1f     ANDLW     0x1f                                                                                            
001054   0802     SUBLW     0x2                                                                                             
001056   e136     BNZ       0x10c4                                                                                          
001058   511c     MOVF      0x1c,0x0,0x1          (SetupPkt.EPNum != 0))                                                    C:\3DAQ\firmware\system\usb\usb9\usb9.c
00105a   0b0f     ANDLW     0xf                                                                                             
00105c   0900     IORLW     0x0                                                                                             
00105e   e032     BZ        0x10c4                                                                                          
                                               {                                                                            C:\3DAQ\firmware\system\usb\usb9\usb9.c
001060   0100     MOVLB     0x0                    ctrl_trf_session_owner = MUID_USB9;                                      C:\3DAQ\firmware\system\usb\usb9\usb9.c
001062   0e01     MOVLW     0x1                                                                                             
001064   6feb     MOVWF     0xeb,0x1                                                                                        
                                                   /* Must do address calculation here */                                   C:\3DAQ\firmware\system\usb\usb9\usb9.c
001066   0104     MOVLB     0x4                    pDst.bRam = (byte*)&ep0Bo+(SetupPkt.EPNum*8)+(SetupPkt.EPDir*4);         C:\3DAQ\firmware\system\usb\usb9\usb9.c
001068   511c     MOVF      0x1c,0x0,0x1                                                                                    
00106a   0b0f     ANDLW     0xf                                                                                             
00106c   0d08     MULLW     0x8                                                                                             
00106e   50f3     MOVF      0xf3,0x0,0x0                                                                                    
001070   6a15     CLRF      0x15,0x0                                                                                        
001072   0f00     ADDLW     0x0                                                                                             
001074   6e14     MOVWF     0x14,0x0                                                                                        
001076   0e04     MOVLW     0x4                                                                                             
001078   2215     ADDWFC    0x15,0x1,0x0                                                                                    
00107a   511c     MOVF      0x1c,0x0,0x1                                                                                    
00107c   0b80     ANDLW     0x80                                                                                            
00107e   e001     BZ        0x1082                                                                                          
001080   0e01     MOVLW     0x1                                                                                             
001082   0d04     MULLW     0x4                                                                                             
001084   50f3     MOVF      0xf3,0x0,0x0                                                                                    
001086   0100     MOVLB     0x0                                                                                             
001088   2414     ADDWF     0x14,0x0,0x0                                                                                    
00108a   6fee     MOVWF     0xee,0x1                                                                                        
00108c   0e00     MOVLW     0x0                                                                                             
00108e   2015     ADDWFC    0x15,0x0,0x0                                                                                    
001090   6fef     MOVWF     0xef,0x1                                                                                        
                                                                                                                            C:\3DAQ\firmware\system\usb\usb9\usb9.c
001092   0e03     MOVLW     0x3                    if(SetupPkt.bRequest == SET_FEATURE)                                     C:\3DAQ\firmware\system\usb\usb9\usb9.c
001094   0104     MOVLB     0x4                                                                                             
001096   5d19     SUBWF     0x19,0x0,0x1                                                                                    
001098   e107     BNZ       0x10a8                                                                                          
00109a   0e84     MOVLW     0x84                       *pDst.bRam = _USIE|_BSTALL;                                          C:\3DAQ\firmware\system\usb\usb9\usb9.c
00109c   c0ee     MOVFF     0xee,0xfe9                                                                                      
00109e   ffe9                                                                                                               
0010a0   c0ef     MOVFF     0xef,0xfea                                                                                      
0010a2   ffea                                                                                                               
0010a4   6eef     MOVWF     0xef,0x0                                                                                        
0010a6   d00e     BRA       0x10c4                 else                                                                     C:\3DAQ\firmware\system\usb\usb9\usb9.c
                                                   {                                                                        C:\3DAQ\firmware\system\usb\usb9\usb9.c
0010a8   af1c     BTFSS     0x1c,0x7,0x1               if(SetupPkt.EPDir == 1) // IN                                        C:\3DAQ\firmware\system\usb\usb9\usb9.c
0010aa   d006     BRA       0x10b8                                                                                          
0010ac   c0ee     MOVFF     0xee,0xfe9                     *pDst.bRam = _UCPU;                                              C:\3DAQ\firmware\system\usb\usb9\usb9.c
0010ae   ffe9                                                                                                               
0010b0   c0ef     MOVFF     0xef,0xfea                                                                                      
0010b2   ffea                                                                                                               
0010b4   6aef     CLRF      0xef,0x0                                                                                        
0010b6   d006     BRA       0x10c4                     else                                                                 C:\3DAQ\firmware\system\usb\usb9\usb9.c
0010b8   0e88     MOVLW     0x88                           *pDst.bRam = _USIE|_DAT0|_DTSEN;                                 C:\3DAQ\firmware\system\usb\usb9\usb9.c
0010ba   c0ee     MOVFF     0xee,0xfe9                                                                                      
0010bc   ffe9                                                                                                               
0010be   c0ef     MOVFF     0xef,0xfea                                                                                      
0010c0   ffea                                                                                                               
0010c2   6eef     MOVWF     0xef,0x0                                                                                        
                                                   }//end if                                                                C:\3DAQ\firmware\system\usb\usb9\usb9.c
                                               }//end if                                                                    C:\3DAQ\firmware\system\usb\usb9\usb9.c
0010c4   0012     RETURN    0x0            }//end USBStdFeatureReqHandler                                                   C:\3DAQ\firmware\system\usb\usb9\usb9.c
                                                                                                                            C:\3DAQ\firmware\system\usb\usb9\usb9.c
                                           /** EOF usb9.c ***************************************************************/  C:\3DAQ\firmware\system\usb\usb9\usb9.c
                                           /*********************************************************************           C:\3DAQ\firmware\autofiles\usbdsc.c
                                            * -usbdsc.c-                                                                    C:\3DAQ\firmware\autofiles\usbdsc.c
                                            * This file contains the USB descriptor information. It is used                 C:\3DAQ\firmware\autofiles\usbdsc.c
                                            * in conjunction with the usbdsc.h file. When a descriptor is added             C:\3DAQ\firmware\autofiles\usbdsc.c
                                            * or removed from the main configuration descriptor, i.e. CFG01,                C:\3DAQ\firmware\autofiles\usbdsc.c
                                            * the user must also change the descriptor structure defined in                 C:\3DAQ\firmware\autofiles\usbdsc.c
                                            * the usbdsc.h file. The structure is used to calculate the                     C:\3DAQ\firmware\autofiles\usbdsc.c
                                            * descriptor size, i.e. sizeof(CFG01).                                          C:\3DAQ\firmware\autofiles\usbdsc.c
                                            *                                                                               C:\3DAQ\firmware\autofiles\usbdsc.c
                                            * A typical configuration descriptor consists of:                               C:\3DAQ\firmware\autofiles\usbdsc.c
                                            * At least one configuration descriptor (USB_CFG_DSC)                           C:\3DAQ\firmware\autofiles\usbdsc.c
                                            * One or more interface descriptors (USB_INTF_DSC)                              C:\3DAQ\firmware\autofiles\usbdsc.c
                                            * One or more endpoint descriptors (USB_EP_DSC)                                 C:\3DAQ\firmware\autofiles\usbdsc.c
                                            *                                                                               C:\3DAQ\firmware\autofiles\usbdsc.c
                                            * Naming Convention:                                                            C:\3DAQ\firmware\autofiles\usbdsc.c
                                            * To resolve ambiguity, the naming convention are as followed:                  C:\3DAQ\firmware\autofiles\usbdsc.c
                                            * - USB_CFG_DSC type should be named cdxx, where xx is the                      C:\3DAQ\firmware\autofiles\usbdsc.c
                                            *   configuration number. This number should match the actual                   C:\3DAQ\firmware\autofiles\usbdsc.c
                                            *   index value of this configuration.                                          C:\3DAQ\firmware\autofiles\usbdsc.c
                                            * - USB_INTF_DSC type should be named i<yy>a<zz>, where yy is the               C:\3DAQ\firmware\autofiles\usbdsc.c
                                            *   interface number and zz is the alternate interface number.                  C:\3DAQ\firmware\autofiles\usbdsc.c
                                            * - USB_EP_DSC type should be named ep<##><d>_i<yy>a<zz>, where                 C:\3DAQ\firmware\autofiles\usbdsc.c
                                            *   ## is the endpoint number and d is the direction of transfer.               C:\3DAQ\firmware\autofiles\usbdsc.c
                                            *   The interface name should also be listed as a suffix to identify            C:\3DAQ\firmware\autofiles\usbdsc.c
                                            *   which interface does the endpoint belong to.                                C:\3DAQ\firmware\autofiles\usbdsc.c
                                            *                                                                               C:\3DAQ\firmware\autofiles\usbdsc.c
                                            * Example:                                                                      C:\3DAQ\firmware\autofiles\usbdsc.c
                                            * If a device has one configuration, two interfaces; interface 0                C:\3DAQ\firmware\autofiles\usbdsc.c
                                            * has two endpoints (in and out), and interface 1 has one endpoint(in).         C:\3DAQ\firmware\autofiles\usbdsc.c
                                            * Then the CFG01 structure in the usbdsc.h should be:                           C:\3DAQ\firmware\autofiles\usbdsc.c
                                            *                                                                               C:\3DAQ\firmware\autofiles\usbdsc.c
                                            * #define CFG01 rom struct                            \                         C:\3DAQ\firmware\autofiles\usbdsc.c
                                            * {   USB_CFG_DSC             cd01;                   \                         C:\3DAQ\firmware\autofiles\usbdsc.c
                                            *     USB_INTF_DSC            i00a00;                 \                         C:\3DAQ\firmware\autofiles\usbdsc.c
                                            *     USB_EP_DSC              ep01o_i00a00;           \                         C:\3DAQ\firmware\autofiles\usbdsc.c
                                            *     USB_EP_DSC              ep01i_i00a00;           \                         C:\3DAQ\firmware\autofiles\usbdsc.c
                                            *     USB_INTF_DSC            i01a00;                 \                         C:\3DAQ\firmware\autofiles\usbdsc.c
                                            *     USB_EP_DSC              ep02i_i01a00;           \                         C:\3DAQ\firmware\autofiles\usbdsc.c
                                            * } cfg01                                                                       C:\3DAQ\firmware\autofiles\usbdsc.c
                                            *                                                                               C:\3DAQ\firmware\autofiles\usbdsc.c
                                            * Note the hierarchy of the descriptors above, it follows the USB               C:\3DAQ\firmware\autofiles\usbdsc.c
                                            * specification requirement. All endpoints belonging to an interface            C:\3DAQ\firmware\autofiles\usbdsc.c
                                            * should be listed immediately after that interface.                            C:\3DAQ\firmware\autofiles\usbdsc.c
                                            *                                                                               C:\3DAQ\firmware\autofiles\usbdsc.c
                                            * -------------------------------------------------------------------           C:\3DAQ\firmware\autofiles\usbdsc.c
                                            * Filling in the descriptor values in the usbdsc.c file:                        C:\3DAQ\firmware\autofiles\usbdsc.c
                                            * -------------------------------------------------------------------           C:\3DAQ\firmware\autofiles\usbdsc.c
                                            * Most items should be self-explanatory, however, a few will be                 C:\3DAQ\firmware\autofiles\usbdsc.c
                                            * explained for clarification.                                                  C:\3DAQ\firmware\autofiles\usbdsc.c
                                            *                                                                               C:\3DAQ\firmware\autofiles\usbdsc.c
                                            * [Configuration Descriptor(USB_CFG_DSC)]                                       C:\3DAQ\firmware\autofiles\usbdsc.c
                                            * The configuration attribute must always have the _DEFAULT                     C:\3DAQ\firmware\autofiles\usbdsc.c
                                            * definition at the minimum. Additional options can be ORed                     C:\3DAQ\firmware\autofiles\usbdsc.c
                                            * to the _DEFAULT attribute. Available options are _SELF and _RWU.              C:\3DAQ\firmware\autofiles\usbdsc.c
                                            * These definitions are defined in the usbdefs_std_dsc.h file. The              C:\3DAQ\firmware\autofiles\usbdsc.c
                                            * _SELF tells the USB host that this device is self-powered. The                C:\3DAQ\firmware\autofiles\usbdsc.c
                                            * _RWU tells the USB host that this device supports Remote Wakeup.              C:\3DAQ\firmware\autofiles\usbdsc.c
                                            *                                                                               C:\3DAQ\firmware\autofiles\usbdsc.c
                                            * [Endpoint Descriptor(USB_EP_DSC)]                                             C:\3DAQ\firmware\autofiles\usbdsc.c
                                            * Assume the following example:                                                 C:\3DAQ\firmware\autofiles\usbdsc.c
                                            * sizeof(USB_EP_DSC),DSC_EP,_EP01_OUT,_BULK,64,0x00                             C:\3DAQ\firmware\autofiles\usbdsc.c
                                            *                                                                               C:\3DAQ\firmware\autofiles\usbdsc.c
                                            * The first two parameters are self-explanatory. They specify the               C:\3DAQ\firmware\autofiles\usbdsc.c
                                            * length of this endpoint descriptor (7) and the descriptor type.               C:\3DAQ\firmware\autofiles\usbdsc.c
                                            * The next parameter identifies the endpoint, the definitions are               C:\3DAQ\firmware\autofiles\usbdsc.c
                                            * defined in usbdefs_std_dsc.h and has the following naming                     C:\3DAQ\firmware\autofiles\usbdsc.c
                                            * convention:                                                                   C:\3DAQ\firmware\autofiles\usbdsc.c
                                            * _EP<##>_<dir>                                                                 C:\3DAQ\firmware\autofiles\usbdsc.c
                                            * where ## is the endpoint number and dir is the direction of                   C:\3DAQ\firmware\autofiles\usbdsc.c
                                            * transfer. The dir has the value of either 'OUT' or 'IN'.                      C:\3DAQ\firmware\autofiles\usbdsc.c
                                            * The next parameter identifies the type of the endpoint. Available             C:\3DAQ\firmware\autofiles\usbdsc.c
                                            * options are _BULK, _INT, _ISO, and _CTRL. The _CTRL is not                    C:\3DAQ\firmware\autofiles\usbdsc.c
                                            * typically used because the default control transfer endpoint is               C:\3DAQ\firmware\autofiles\usbdsc.c
                                            * not defined in the USB descriptors. When _ISO option is used,                 C:\3DAQ\firmware\autofiles\usbdsc.c
                                            * addition options can be ORed to _ISO. Example:                                C:\3DAQ\firmware\autofiles\usbdsc.c
                                            * _ISO|_AD|_FE                                                                  C:\3DAQ\firmware\autofiles\usbdsc.c
                                            * This describes the endpoint as an isochronous pipe with adaptive              C:\3DAQ\firmware\autofiles\usbdsc.c
                                            * and feedback attributes. See usbdefs_std_dsc.h and the USB                    C:\3DAQ\firmware\autofiles\usbdsc.c
                                            * specification for details. The next parameter defines the size of             C:\3DAQ\firmware\autofiles\usbdsc.c
                                            * the endpoint. The last parameter in the polling interval.                     C:\3DAQ\firmware\autofiles\usbdsc.c
                                            *                                                                               C:\3DAQ\firmware\autofiles\usbdsc.c
                                            * -------------------------------------------------------------------           C:\3DAQ\firmware\autofiles\usbdsc.c
                                            * Adding a USB String                                                           C:\3DAQ\firmware\autofiles\usbdsc.c
                                            * -------------------------------------------------------------------           C:\3DAQ\firmware\autofiles\usbdsc.c
                                            * A string descriptor array should have the following format:                   C:\3DAQ\firmware\autofiles\usbdsc.c
                                            *                                                                               C:\3DAQ\firmware\autofiles\usbdsc.c
                                            * rom struct{byte bLength;byte bDscType;word string[size];}sdxxx={              C:\3DAQ\firmware\autofiles\usbdsc.c
                                            * sizeof(sdxxx),DSC_STR,<text>};                                                C:\3DAQ\firmware\autofiles\usbdsc.c
                                            *                                                                               C:\3DAQ\firmware\autofiles\usbdsc.c
                                            * The above structure provides a means for the C compiler to                    C:\3DAQ\firmware\autofiles\usbdsc.c
                                            * calculate the length of string descriptor sdxxx, where xxx is the             C:\3DAQ\firmware\autofiles\usbdsc.c
                                            * index number. The first two bytes of the descriptor are descriptor            C:\3DAQ\firmware\autofiles\usbdsc.c
                                            * length and type. The rest <text> are string texts which must be               C:\3DAQ\firmware\autofiles\usbdsc.c
                                            * in the unicode format. The unicode format is achieved by declaring            C:\3DAQ\firmware\autofiles\usbdsc.c
                                            * each character as a word type. The whole text string is declared              C:\3DAQ\firmware\autofiles\usbdsc.c
                                            * as a word array with the number of characters equals to <size>.               C:\3DAQ\firmware\autofiles\usbdsc.c
                                            * <size> has to be manually counted and entered into the array                  C:\3DAQ\firmware\autofiles\usbdsc.c
                                            * declaration. Let's study this through an example:                             C:\3DAQ\firmware\autofiles\usbdsc.c
                                            * if the string is "USB" , then the string descriptor should be:                C:\3DAQ\firmware\autofiles\usbdsc.c
                                            * (Using index 02)                                                              C:\3DAQ\firmware\autofiles\usbdsc.c
                                            * rom struct{byte bLength;byte bDscType;word string[3];}sd002={                 C:\3DAQ\firmware\autofiles\usbdsc.c
                                            * sizeof(sd002),DSC_STR,'U','S','B'};                                           C:\3DAQ\firmware\autofiles\usbdsc.c
                                            *                                                                               C:\3DAQ\firmware\autofiles\usbdsc.c
                                            * A USB project may have multiple strings and the firmware supports             C:\3DAQ\firmware\autofiles\usbdsc.c
                                            * the management of multiple strings through a look-up table.                   C:\3DAQ\firmware\autofiles\usbdsc.c
                                            * The look-up table is defined as:                                              C:\3DAQ\firmware\autofiles\usbdsc.c
                                            * rom const unsigned char *rom USB_SD_Ptr[]={&sd000,&sd001,&sd002};             C:\3DAQ\firmware\autofiles\usbdsc.c
                                            *                                                                               C:\3DAQ\firmware\autofiles\usbdsc.c
                                            * The above declaration has 3 strings, sd000, sd001, and sd002.                 C:\3DAQ\firmware\autofiles\usbdsc.c
                                            * Strings can be removed or added. sd000 is a specialized string                C:\3DAQ\firmware\autofiles\usbdsc.c
                                            * descriptor. It defines the language code, usually this is                     C:\3DAQ\firmware\autofiles\usbdsc.c
                                            * US English (0x0409). The index of the string must match the index             C:\3DAQ\firmware\autofiles\usbdsc.c
                                            * position of the USB_SD_Ptr array, &sd000 must be in position                  C:\3DAQ\firmware\autofiles\usbdsc.c
                                            * USB_SD_Ptr[0], &sd001 must be in position USB_SD_Ptr[1] and so on.            C:\3DAQ\firmware\autofiles\usbdsc.c
                                            * The look-up table USB_SD_Ptr is used by the get string handler                C:\3DAQ\firmware\autofiles\usbdsc.c
                                            * function in usb9.c.                                                           C:\3DAQ\firmware\autofiles\usbdsc.c
                                            *                                                                               C:\3DAQ\firmware\autofiles\usbdsc.c
                                            * -------------------------------------------------------------------           C:\3DAQ\firmware\autofiles\usbdsc.c
                                            *                                                                               C:\3DAQ\firmware\autofiles\usbdsc.c
                                            * The look-up table scheme also applies to the configuration                    C:\3DAQ\firmware\autofiles\usbdsc.c
                                            * descriptor. A USB device may have multiple configuration                      C:\3DAQ\firmware\autofiles\usbdsc.c
                                            * descriptors, i.e. CFG01, CFG02, etc. To add a configuration                   C:\3DAQ\firmware\autofiles\usbdsc.c
                                            * descriptor, user must implement a structure similar to CFG01.                 C:\3DAQ\firmware\autofiles\usbdsc.c
                                            * The next step is to add the configuration descriptor name, i.e.               C:\3DAQ\firmware\autofiles\usbdsc.c
                                            * cfg01, cfg02,.., to the look-up table USB_CD_Ptr. USB_CD_Ptr[0]               C:\3DAQ\firmware\autofiles\usbdsc.c
                                            * is a dummy place holder since configuration 0 is the un-configured            C:\3DAQ\firmware\autofiles\usbdsc.c
                                            * state according to the definition in the USB specification.                   C:\3DAQ\firmware\autofiles\usbdsc.c
                                            *                                                                               C:\3DAQ\firmware\autofiles\usbdsc.c
                                            ********************************************************************/           C:\3DAQ\firmware\autofiles\usbdsc.c
                                                                                                                            C:\3DAQ\firmware\autofiles\usbdsc.c
                                           /*********************************************************************           C:\3DAQ\firmware\autofiles\usbdsc.c
                                            * Descriptor specific type definitions are defined in:                          C:\3DAQ\firmware\autofiles\usbdsc.c
                                            * system\usb\usbdefs\usbdefs_std_dsc.h                                          C:\3DAQ\firmware\autofiles\usbdsc.c
                                            *                                                                               C:\3DAQ\firmware\autofiles\usbdsc.c
                                            * Configuration information is defined in:                                      C:\3DAQ\firmware\autofiles\usbdsc.c
                                            * autofiles\usbcfg.h                                                            C:\3DAQ\firmware\autofiles\usbdsc.c
                                            ********************************************************************/           C:\3DAQ\firmware\autofiles\usbdsc.c
                                                                                                                            C:\3DAQ\firmware\autofiles\usbdsc.c
                                           /** I N C L U D E S *************************************************/           C:\3DAQ\firmware\autofiles\usbdsc.c
                                           #include "system\typedefs.h"                                                     C:\3DAQ\firmware\autofiles\usbdsc.c
                                           #include "system\usb\usb.h"                                                      C:\3DAQ\firmware\autofiles\usbdsc.c
                                                                                                                            C:\3DAQ\firmware\autofiles\usbdsc.c
                                           /** C O N S T A N T S ************************************************/          C:\3DAQ\firmware\autofiles\usbdsc.c
                                           #pragma romdata                                                                  C:\3DAQ\firmware\autofiles\usbdsc.c
                                                                                                                            C:\3DAQ\firmware\autofiles\usbdsc.c
                                           /* Device Descriptor */                                                          C:\3DAQ\firmware\autofiles\usbdsc.c
                                           rom USB_DEV_DSC device_dsc=                                                      C:\3DAQ\firmware\autofiles\usbdsc.c
                                           {                                                                                C:\3DAQ\firmware\autofiles\usbdsc.c
                                               sizeof(USB_DEV_DSC),    // Size of this descriptor in bytes                  C:\3DAQ\firmware\autofiles\usbdsc.c
                                               DSC_DEV,                // DEVICE descriptor type                            C:\3DAQ\firmware\autofiles\usbdsc.c
                                               0x0200,                 // USB Spec Release Number in BCD format             C:\3DAQ\firmware\autofiles\usbdsc.c
                                               0x00,                   // Class Code                                        C:\3DAQ\firmware\autofiles\usbdsc.c
                                               0x00,                   // Subclass code                                     C:\3DAQ\firmware\autofiles\usbdsc.c
                                               0x00,                   // Protocol code                                     C:\3DAQ\firmware\autofiles\usbdsc.c
                                               EP0_BUFF_SIZE,          // Max packet size for EP0, see usbcfg.h             C:\3DAQ\firmware\autofiles\usbdsc.c
                                               0x04D8,                 // Vendor ID                                         C:\3DAQ\firmware\autofiles\usbdsc.c
                                               0x000C,                 // Product ID: PICDEM FS USB (DEMO Mode)             C:\3DAQ\firmware\autofiles\usbdsc.c
                                               0x0000,                 // Device release number in BCD format               C:\3DAQ\firmware\autofiles\usbdsc.c
                                               0x01,                   // Manufacturer string index                         C:\3DAQ\firmware\autofiles\usbdsc.c
                                               0x02,                   // Product string index                              C:\3DAQ\firmware\autofiles\usbdsc.c
                                               0x00,                   // Device serial number string index                 C:\3DAQ\firmware\autofiles\usbdsc.c
                                               0x01                    // Number of possible configurations                 C:\3DAQ\firmware\autofiles\usbdsc.c
                                           };                                                                               C:\3DAQ\firmware\autofiles\usbdsc.c
                                                                                                                            C:\3DAQ\firmware\autofiles\usbdsc.c
                                           /* Configuration 1 Descriptor */                                                 C:\3DAQ\firmware\autofiles\usbdsc.c
                                           CFG01=                                                                           C:\3DAQ\firmware\autofiles\usbdsc.c
                                           {                                                                                C:\3DAQ\firmware\autofiles\usbdsc.c
                                               /* Configuration Descriptor */                                               C:\3DAQ\firmware\autofiles\usbdsc.c
                                               sizeof(USB_CFG_DSC),    // Size of this descriptor in bytes                  C:\3DAQ\firmware\autofiles\usbdsc.c
                                               DSC_CFG,                // CONFIGURATION descriptor type                     C:\3DAQ\firmware\autofiles\usbdsc.c
                                               sizeof(cfg01),          // Total length of data for this cfg                 C:\3DAQ\firmware\autofiles\usbdsc.c
                                               1,                      // Number of interfaces in this cfg                  C:\3DAQ\firmware\autofiles\usbdsc.c
                                               1,                      // Index value of this configuration                 C:\3DAQ\firmware\autofiles\usbdsc.c
                                               0,                      // Configuration string index                        C:\3DAQ\firmware\autofiles\usbdsc.c
                                               _DEFAULT,               // Attributes, see usbdefs_std_dsc.h                 C:\3DAQ\firmware\autofiles\usbdsc.c
                                               50,                     // Max power consumption (2X mA)                     C:\3DAQ\firmware\autofiles\usbdsc.c
                                                                                                                            C:\3DAQ\firmware\autofiles\usbdsc.c
                                               /* Interface Descriptor */                                                   C:\3DAQ\firmware\autofiles\usbdsc.c
                                               sizeof(USB_INTF_DSC),   // Size of this descriptor in bytes                  C:\3DAQ\firmware\autofiles\usbdsc.c
                                               DSC_INTF,               // INTERFACE descriptor type                         C:\3DAQ\firmware\autofiles\usbdsc.c
                                               0,                      // Interface Number                                  C:\3DAQ\firmware\autofiles\usbdsc.c
                                               0,                      // Alternate Setting Number                          C:\3DAQ\firmware\autofiles\usbdsc.c
                                               2,                      // Number of endpoints in this intf                  C:\3DAQ\firmware\autofiles\usbdsc.c
                                               0x00,                   // Class code                                        C:\3DAQ\firmware\autofiles\usbdsc.c
                                               0x00,                   // Subclass code                                     C:\3DAQ\firmware\autofiles\usbdsc.c
                                               0x00,                   // Protocol code                                     C:\3DAQ\firmware\autofiles\usbdsc.c
                                               0,                      // Interface string index                            C:\3DAQ\firmware\autofiles\usbdsc.c
                                                                                                                            C:\3DAQ\firmware\autofiles\usbdsc.c
                                               /* Endpoint Descriptors */                                                   C:\3DAQ\firmware\autofiles\usbdsc.c
                                           	//Mod by Tim                                                                    C:\3DAQ\firmware\autofiles\usbdsc.c
                                               //sizeof(USB_EP_DSC),DSC_EP,_EP01_OUT,_INT,USBGEN_EP_SIZE,32,                C:\3DAQ\firmware\autofiles\usbdsc.c
                                               //sizeof(USB_EP_DSC),DSC_EP,_EP01_IN,_INT,USBGEN_EP_SIZE,32                  C:\3DAQ\firmware\autofiles\usbdsc.c
                                           	                                                                                C:\3DAQ\firmware\autofiles\usbdsc.c
                                               sizeof(USB_EP_DSC),DSC_EP,_EP01_OUT,_BULK,USBGEN_EP_SIZE,32,                 C:\3DAQ\firmware\autofiles\usbdsc.c
                                               sizeof(USB_EP_DSC),DSC_EP,_EP01_IN,_BULK,USBGEN_EP_SIZE,32                   C:\3DAQ\firmware\autofiles\usbdsc.c
                                           	//end mod by Tim                                                                C:\3DAQ\firmware\autofiles\usbdsc.c
                                           };                                                                               C:\3DAQ\firmware\autofiles\usbdsc.c
                                                                                                                            C:\3DAQ\firmware\autofiles\usbdsc.c
                                           rom struct{byte bLength;byte bDscType;word string[1];}sd000={                    C:\3DAQ\firmware\autofiles\usbdsc.c
                                           sizeof(sd000),DSC_STR,0x0409};                                                   C:\3DAQ\firmware\autofiles\usbdsc.c
                                                                                                                            C:\3DAQ\firmware\autofiles\usbdsc.c
                                           rom struct{byte bLength;byte bDscType;word string[25];}sd001={                   C:\3DAQ\firmware\autofiles\usbdsc.c
                                           sizeof(sd001),DSC_STR,                                                           C:\3DAQ\firmware\autofiles\usbdsc.c
                                           'M','i','c','r','o','c','h','i','p',' ',                                         C:\3DAQ\firmware\autofiles\usbdsc.c
                                           'T','e','c','h','n','o','l','o','g','y',' ','I','n','c','.'};                    C:\3DAQ\firmware\autofiles\usbdsc.c
                                                                                                                            C:\3DAQ\firmware\autofiles\usbdsc.c
                                           rom struct{byte bLength;byte bDscType;word string[33];}sd002={                   C:\3DAQ\firmware\autofiles\usbdsc.c
                                           sizeof(sd002),DSC_STR,                                                           C:\3DAQ\firmware\autofiles\usbdsc.c
                                           'P','I','C','D','E','M',' ','F','S',' ','U','S','B',' ',                         C:\3DAQ\firmware\autofiles\usbdsc.c
                                           'D','e','m','o',' ','B','o','a','r','d',' ','(','C',')',                         C:\3DAQ\firmware\autofiles\usbdsc.c
                                           ' ','2','0','0','4'};                                                            C:\3DAQ\firmware\autofiles\usbdsc.c
                                                                                                                            C:\3DAQ\firmware\autofiles\usbdsc.c
                                           rom const unsigned char *rom USB_CD_Ptr[]={&cfg01,&cfg01};                       C:\3DAQ\firmware\autofiles\usbdsc.c
                                           rom const unsigned char *rom USB_SD_Ptr[]={&sd000,&sd001,&sd002};                C:\3DAQ\firmware\autofiles\usbdsc.c
                                                                                                                            C:\3DAQ\firmware\autofiles\usbdsc.c
                                                                                                                            C:\3DAQ\firmware\autofiles\usbdsc.c
                                           #pragma code                                                                     C:\3DAQ\firmware\autofiles\usbdsc.c
                                                                                                                            C:\3DAQ\firmware\autofiles\usbdsc.c
                                           /** EOF usbdsc.c ****************************************************/           C:\3DAQ\firmware\autofiles\usbdsc.c
                                           /*********************************************************************           C:\3DAQ\firmware\system\usb\usbctrltrf\usbctrltrf.c
                                            *                                                                               C:\3DAQ\firmware\system\usb\usbctrltrf\usbctrltrf.c
                                            *                Microchip USB C18 Firmware Version 1.0                         C:\3DAQ\firmware\system\usb\usbctrltrf\usbctrltrf.c
                                            *                                                                               C:\3DAQ\firmware\system\usb\usbctrltrf\usbctrltrf.c
                                            *********************************************************************           C:\3DAQ\firmware\system\usb\usbctrltrf\usbctrltrf.c
                                            * FileName:        usbctrltrf.c                                                 C:\3DAQ\firmware\system\usb\usbctrltrf\usbctrltrf.c
                                            * Dependencies:    See INCLUDES section below                                   C:\3DAQ\firmware\system\usb\usbctrltrf\usbctrltrf.c
                                            * Processor:       PIC18                                                        C:\3DAQ\firmware\system\usb\usbctrltrf\usbctrltrf.c
                                            * Compiler:        C18 2.30.01+                                                 C:\3DAQ\firmware\system\usb\usbctrltrf\usbctrltrf.c
                                            * Company:         Microchip Technology, Inc.                                   C:\3DAQ\firmware\system\usb\usbctrltrf\usbctrltrf.c
                                            *                                                                               C:\3DAQ\firmware\system\usb\usbctrltrf\usbctrltrf.c
                                            * Software License Agreement                                                    C:\3DAQ\firmware\system\usb\usbctrltrf\usbctrltrf.c
                                            *                                                                               C:\3DAQ\firmware\system\usb\usbctrltrf\usbctrltrf.c
                                            * The software supplied herewith by Microchip Technology Incorporated           C:\3DAQ\firmware\system\usb\usbctrltrf\usbctrltrf.c
                                            * (the Company) for its PICmicro Microcontroller is intended and             C:\3DAQ\firmware\system\usb\usbctrltrf\usbctrltrf.c
                                            * supplied to you, the Companys customer, for use solely and                   C:\3DAQ\firmware\system\usb\usbctrltrf\usbctrltrf.c
                                            * exclusively on Microchip PICmicro Microcontroller products. The               C:\3DAQ\firmware\system\usb\usbctrltrf\usbctrltrf.c
                                            * software is owned by the Company and/or its supplier, and is                  C:\3DAQ\firmware\system\usb\usbctrltrf\usbctrltrf.c
                                            * protected under applicable copyright laws. All rights are reserved.           C:\3DAQ\firmware\system\usb\usbctrltrf\usbctrltrf.c
                                            * Any use in violation of the foregoing restrictions may subject the            C:\3DAQ\firmware\system\usb\usbctrltrf\usbctrltrf.c
                                            * user to criminal sanctions under applicable laws, as well as to               C:\3DAQ\firmware\system\usb\usbctrltrf\usbctrltrf.c
                                            * civil liability for the breach of the terms and conditions of this            C:\3DAQ\firmware\system\usb\usbctrltrf\usbctrltrf.c
                                            * license.                                                                      C:\3DAQ\firmware\system\usb\usbctrltrf\usbctrltrf.c
                                            *                                                                               C:\3DAQ\firmware\system\usb\usbctrltrf\usbctrltrf.c
                                            * THIS SOFTWARE IS PROVIDED IN AN AS IS CONDITION. NO WARRANTIES,             C:\3DAQ\firmware\system\usb\usbctrltrf\usbctrltrf.c
                                            * WHETHER EXPRESS, IMPLIED OR STATUTORY, INCLUDING, BUT NOT LIMITED             C:\3DAQ\firmware\system\usb\usbctrltrf\usbctrltrf.c
                                            * TO, IMPLIED WARRANTIES OF MERCHANTABILITY AND FITNESS FOR A                   C:\3DAQ\firmware\system\usb\usbctrltrf\usbctrltrf.c
                                            * PARTICULAR PURPOSE APPLY TO THIS SOFTWARE. THE COMPANY SHALL NOT,             C:\3DAQ\firmware\system\usb\usbctrltrf\usbctrltrf.c
                                            * IN ANY CIRCUMSTANCES, BE LIABLE FOR SPECIAL, INCIDENTAL OR                    C:\3DAQ\firmware\system\usb\usbctrltrf\usbctrltrf.c
                                            * CONSEQUENTIAL DAMAGES, FOR ANY REASON WHATSOEVER.                             C:\3DAQ\firmware\system\usb\usbctrltrf\usbctrltrf.c
                                            *                                                                               C:\3DAQ\firmware\system\usb\usbctrltrf\usbctrltrf.c
                                            * Author               Date        Comment                                      C:\3DAQ\firmware\system\usb\usbctrltrf\usbctrltrf.c
                                            *~~~~~~~~~~~~~~~~~~~~~~~~~~~~~~~~~~~~~~~~~~~~~~~~~~~~~~~~~~~~~~~~~~~~           C:\3DAQ\firmware\system\usb\usbctrltrf\usbctrltrf.c
                                            * Rawin Rojvanit       11/19/04    Original.                                    C:\3DAQ\firmware\system\usb\usbctrltrf\usbctrltrf.c
                                            ********************************************************************/           C:\3DAQ\firmware\system\usb\usbctrltrf\usbctrltrf.c
                                                                                                                            C:\3DAQ\firmware\system\usb\usbctrltrf\usbctrltrf.c
                                           /** I N C L U D E S **********************************************************/  C:\3DAQ\firmware\system\usb\usbctrltrf\usbctrltrf.c
                                           #include <p18cxxx.h>                                                             C:\3DAQ\firmware\system\usb\usbctrltrf\usbctrltrf.c
                                           #include "system\typedefs.h"                                                     C:\3DAQ\firmware\system\usb\usbctrltrf\usbctrltrf.c
                                           #include "system\usb\usb.h"                                                      C:\3DAQ\firmware\system\usb\usbctrltrf\usbctrltrf.c
                                                                                                                            C:\3DAQ\firmware\system\usb\usbctrltrf\usbctrltrf.c
                                           /** V A R I A B L E S ********************************************************/  C:\3DAQ\firmware\system\usb\usbctrltrf\usbctrltrf.c
                                           #pragma udata                                                                    C:\3DAQ\firmware\system\usb\usbctrltrf\usbctrltrf.c
                                           byte ctrl_trf_state;                // Control Transfer State                    C:\3DAQ\firmware\system\usb\usbctrltrf\usbctrltrf.c
                                           byte ctrl_trf_session_owner;        // Current transfer session owner            C:\3DAQ\firmware\system\usb\usbctrltrf\usbctrltrf.c
                                                                                                                            C:\3DAQ\firmware\system\usb\usbctrltrf\usbctrltrf.c
                                           POINTER pSrc;                       // Data source pointer                       C:\3DAQ\firmware\system\usb\usbctrltrf\usbctrltrf.c
                                           POINTER pDst;                       // Data destination pointer                  C:\3DAQ\firmware\system\usb\usbctrltrf\usbctrltrf.c
                                           WORD wCount;                        // Data counter                              C:\3DAQ\firmware\system\usb\usbctrltrf\usbctrltrf.c
                                                                                                                            C:\3DAQ\firmware\system\usb\usbctrltrf\usbctrltrf.c
                                           /** P R I V A T E  P R O T O T Y P E S ***************************************/  C:\3DAQ\firmware\system\usb\usbctrltrf\usbctrltrf.c
                                           void USBCtrlTrfSetupHandler(void);                                               C:\3DAQ\firmware\system\usb\usbctrltrf\usbctrltrf.c
                                           void USBCtrlTrfOutHandler(void);                                                 C:\3DAQ\firmware\system\usb\usbctrltrf\usbctrltrf.c
                                           void USBCtrlTrfInHandler(void);                                                  C:\3DAQ\firmware\system\usb\usbctrltrf\usbctrltrf.c
                                                                                                                            C:\3DAQ\firmware\system\usb\usbctrltrf\usbctrltrf.c
                                           /** D E C L A R A T I O N S **************************************************/  C:\3DAQ\firmware\system\usb\usbctrltrf\usbctrltrf.c
                                           #pragma code                                                                     C:\3DAQ\firmware\system\usb\usbctrltrf\usbctrltrf.c
                                           /******************************************************************************  C:\3DAQ\firmware\system\usb\usbctrltrf\usbctrltrf.c
                                            * Function:        void USBCtrlEPService(void)                                  C:\3DAQ\firmware\system\usb\usbctrltrf\usbctrltrf.c
                                            *                                                                               C:\3DAQ\firmware\system\usb\usbctrltrf\usbctrltrf.c
                                            * PreCondition:    USTAT is loaded with a valid endpoint address.               C:\3DAQ\firmware\system\usb\usbctrltrf\usbctrltrf.c
                                            *                                                                               C:\3DAQ\firmware\system\usb\usbctrltrf\usbctrltrf.c
                                            * Input:           None                                                         C:\3DAQ\firmware\system\usb\usbctrltrf\usbctrltrf.c
                                            *                                                                               C:\3DAQ\firmware\system\usb\usbctrltrf\usbctrltrf.c
                                            * Output:          None                                                         C:\3DAQ\firmware\system\usb\usbctrltrf\usbctrltrf.c
                                            *                                                                               C:\3DAQ\firmware\system\usb\usbctrltrf\usbctrltrf.c
                                            * Side Effects:    None                                                         C:\3DAQ\firmware\system\usb\usbctrltrf\usbctrltrf.c
                                            *                                                                               C:\3DAQ\firmware\system\usb\usbctrltrf\usbctrltrf.c
                                            * Overview:        USBCtrlEPService checks for three transaction types that     C:\3DAQ\firmware\system\usb\usbctrltrf\usbctrltrf.c
                                            *                  it knows how to service and services them:                   C:\3DAQ\firmware\system\usb\usbctrltrf\usbctrltrf.c
                                            *                  1. EP0 SETUP                                                 C:\3DAQ\firmware\system\usb\usbctrltrf\usbctrltrf.c
                                            *                  2. EP0 OUT                                                   C:\3DAQ\firmware\system\usb\usbctrltrf\usbctrltrf.c
                                            *                  3. EP0 IN                                                    C:\3DAQ\firmware\system\usb\usbctrltrf\usbctrltrf.c
                                            *                  It ignores all other types (i.e. EP1, EP2, etc.)             C:\3DAQ\firmware\system\usb\usbctrltrf\usbctrltrf.c
                                            *                                                                               C:\3DAQ\firmware\system\usb\usbctrltrf\usbctrltrf.c
                                            * Note:            None                                                         C:\3DAQ\firmware\system\usb\usbctrltrf\usbctrltrf.c
                                            *****************************************************************************/  C:\3DAQ\firmware\system\usb\usbctrltrf\usbctrltrf.c
                                           void USBCtrlEPService(void)                                                      C:\3DAQ\firmware\system\usb\usbctrltrf\usbctrltrf.c
                                           {                                                                                C:\3DAQ\firmware\system\usb\usbctrltrf\usbctrltrf.c
0010c6   506c     MOVF      0x6c,0x0,0x0       if(USTAT == EP00_OUT)                                                        C:\3DAQ\firmware\system\usb\usbctrltrf\usbctrltrf.c
0010c8   e002     BZ        0x10ce                                                                                          
0010ca   0e00     MOVLW     0x0                                                                                             
0010cc   d001     BRA       0x10d0                                                                                          
0010ce   0e01     MOVLW     0x1                                                                                             
0010d0   0900     IORLW     0x0                                                                                             
0010d2   e00b     BZ        0x10ea                                                                                          
                                               {                                                                            C:\3DAQ\firmware\system\usb\usbctrltrf\usbctrltrf.c
0010d4   0104     MOVLB     0x4                    if(ep0Bo.Stat.PID == SETUP_TOKEN)           // EP0 SETUP                 C:\3DAQ\firmware\system\usb\usbctrltrf\usbctrltrf.c
0010d6   5100     MOVF      0x0,0x0,0x1                                                                                     
0010d8   0b3c     ANDLW     0x3c                                                                                            
0010da   42e8     RRNCF     0xe8,0x1,0x0                                                                                    
0010dc   42e8     RRNCF     0xe8,0x1,0x0                                                                                    
0010de   080d     SUBLW     0xd                                                                                             
0010e0   e102     BNZ       0x10e6                                                                                          
0010e2   d80c     RCALL     0x10fc                     USBCtrlTrfSetupHandler();                                            C:\3DAQ\firmware\system\usb\usbctrltrf\usbctrltrf.c
0010e4   d001     BRA       0x10e8                 else                                        // EP0 OUT                   C:\3DAQ\firmware\system\usb\usbctrltrf\usbctrltrf.c
0010e6   d81c     RCALL     0x1120                     USBCtrlTrfOutHandler();                                              C:\3DAQ\firmware\system\usb\usbctrltrf\usbctrltrf.c
                                               }                                                                            C:\3DAQ\firmware\system\usb\usbctrltrf\usbctrltrf.c
0010e8   d008     BRA       0x10fa             else if(USTAT == EP00_IN)                       // EP0 IN                    C:\3DAQ\firmware\system\usb\usbctrltrf\usbctrltrf.c
0010ea   506c     MOVF      0x6c,0x0,0x0                                                                                    
0010ec   e002     BZ        0x10f2                                                                                          
0010ee   0e00     MOVLW     0x0                                                                                             
0010f0   d001     BRA       0x10f4                                                                                          
0010f2   0e01     MOVLW     0x1                                                                                             
0010f4   0904     IORLW     0x4                                                                                             
0010f6   e001     BZ        0x10fa                                                                                          
0010f8   d823     RCALL     0x1140                 USBCtrlTrfInHandler();                                                   C:\3DAQ\firmware\system\usb\usbctrltrf\usbctrltrf.c
                                                                                                                            C:\3DAQ\firmware\system\usb\usbctrltrf\usbctrltrf.c
0010fa   0012     RETURN    0x0            }//end USBCtrlEPService                                                          C:\3DAQ\firmware\system\usb\usbctrltrf\usbctrltrf.c
                                                                                                                            C:\3DAQ\firmware\system\usb\usbctrltrf\usbctrltrf.c
                                           /******************************************************************************  C:\3DAQ\firmware\system\usb\usbctrltrf\usbctrltrf.c
                                            * Function:        void USBCtrlTrfSetupHandler(void)                            C:\3DAQ\firmware\system\usb\usbctrltrf\usbctrltrf.c
                                            *                                                                               C:\3DAQ\firmware\system\usb\usbctrltrf\usbctrltrf.c
                                            * PreCondition:    SetupPkt buffer is loaded with valid USB Setup Data          C:\3DAQ\firmware\system\usb\usbctrltrf\usbctrltrf.c
                                            *                                                                               C:\3DAQ\firmware\system\usb\usbctrltrf\usbctrltrf.c
                                            * Input:           None                                                         C:\3DAQ\firmware\system\usb\usbctrltrf\usbctrltrf.c
                                            *                                                                               C:\3DAQ\firmware\system\usb\usbctrltrf\usbctrltrf.c
                                            * Output:          None                                                         C:\3DAQ\firmware\system\usb\usbctrltrf\usbctrltrf.c
                                            *                                                                               C:\3DAQ\firmware\system\usb\usbctrltrf\usbctrltrf.c
                                            * Side Effects:    None                                                         C:\3DAQ\firmware\system\usb\usbctrltrf\usbctrltrf.c
                                            *                                                                               C:\3DAQ\firmware\system\usb\usbctrltrf\usbctrltrf.c
                                            * Overview:        This routine is a task dispatcher and has 3 stages.          C:\3DAQ\firmware\system\usb\usbctrltrf\usbctrltrf.c
                                            *                  1. It initializes the control transfer state machine.        C:\3DAQ\firmware\system\usb\usbctrltrf\usbctrltrf.c
                                            *                  2. It calls on each of the module that may know how to       C:\3DAQ\firmware\system\usb\usbctrltrf\usbctrltrf.c
                                            *                     service the Setup Request from the host.                  C:\3DAQ\firmware\system\usb\usbctrltrf\usbctrltrf.c
                                            *                     Module Example: USB9, HID, CDC, MSD, ...                  C:\3DAQ\firmware\system\usb\usbctrltrf\usbctrltrf.c
                                            *                     As new classes are added, ClassReqHandler table in        C:\3DAQ\firmware\system\usb\usbctrltrf\usbctrltrf.c
                                            *                     usbdsc.c should be updated to call all available          C:\3DAQ\firmware\system\usb\usbctrltrf\usbctrltrf.c
                                            *                     class handlers.                                           C:\3DAQ\firmware\system\usb\usbctrltrf\usbctrltrf.c
                                            *                  3. Once each of the modules has had a chance to check if     C:\3DAQ\firmware\system\usb\usbctrltrf\usbctrltrf.c
                                            *                     it is responsible for servicing the request, stage 3      C:\3DAQ\firmware\system\usb\usbctrltrf\usbctrltrf.c
                                            *                     then checks direction of the transfer to determine how    C:\3DAQ\firmware\system\usb\usbctrltrf\usbctrltrf.c
                                            *                     to prepare EP0 for the control transfer.                  C:\3DAQ\firmware\system\usb\usbctrltrf\usbctrltrf.c
                                            *                     Refer to USBCtrlEPServiceComplete() for more details.     C:\3DAQ\firmware\system\usb\usbctrltrf\usbctrltrf.c
                                            *                                                                               C:\3DAQ\firmware\system\usb\usbctrltrf\usbctrltrf.c
                                            * Note:            Microchip USB Firmware has three different states for        C:\3DAQ\firmware\system\usb\usbctrltrf\usbctrltrf.c
                                            *                  the control transfer state machine:                          C:\3DAQ\firmware\system\usb\usbctrltrf\usbctrltrf.c
                                            *                  1. WAIT_SETUP                                                C:\3DAQ\firmware\system\usb\usbctrltrf\usbctrltrf.c
                                            *                  2. CTRL_TRF_TX                                               C:\3DAQ\firmware\system\usb\usbctrltrf\usbctrltrf.c
                                            *                  3. CTRL_TRF_RX                                               C:\3DAQ\firmware\system\usb\usbctrltrf\usbctrltrf.c
                                            *                  Refer to firmware manual to find out how one state           C:\3DAQ\firmware\system\usb\usbctrltrf\usbctrltrf.c
                                            *                  is transitioned to another.                                  C:\3DAQ\firmware\system\usb\usbctrltrf\usbctrltrf.c
                                            *                                                                               C:\3DAQ\firmware\system\usb\usbctrltrf\usbctrltrf.c
                                            *                  A Control Transfer is composed of many USB transactions.     C:\3DAQ\firmware\system\usb\usbctrltrf\usbctrltrf.c
                                            *                  When transferring data over multiple transactions,           C:\3DAQ\firmware\system\usb\usbctrltrf\usbctrltrf.c
                                            *                  it is important to keep track of data source, data           C:\3DAQ\firmware\system\usb\usbctrltrf\usbctrltrf.c
                                            *                  destination, and data count. These three parameters are      C:\3DAQ\firmware\system\usb\usbctrltrf\usbctrltrf.c
                                            *                  stored in pSrc,pDst, and wCount. A flag is used to           C:\3DAQ\firmware\system\usb\usbctrltrf\usbctrltrf.c
                                            *                  note if the data source is from ROM or RAM.                  C:\3DAQ\firmware\system\usb\usbctrltrf\usbctrltrf.c
                                            *                                                                               C:\3DAQ\firmware\system\usb\usbctrltrf\usbctrltrf.c
                                            *****************************************************************************/  C:\3DAQ\firmware\system\usb\usbctrltrf\usbctrltrf.c
0010fc   cfd9     MOVFF     0xfd9,0xfe6    void USBCtrlTrfSetupHandler(void)                                                C:\3DAQ\firmware\system\usb\usbctrltrf\usbctrltrf.c
0010fe   ffe6                                                                                                               
001100   cfe1     MOVFF     0xfe1,0xfd9                                                                                     
001102   ffd9                                                                                                               
001104   52e6     MOVF      0xe6,0x1,0x0                                                                                    
                                           {                                                                                C:\3DAQ\firmware\system\usb\usbctrltrf\usbctrltrf.c
                                               byte i;                                                                      C:\3DAQ\firmware\system\usb\usbctrltrf\usbctrltrf.c
                                                                                                                            C:\3DAQ\firmware\system\usb\usbctrltrf\usbctrltrf.c
                                               /* Stage 1 */                                                                C:\3DAQ\firmware\system\usb\usbctrltrf\usbctrltrf.c
001106   0100     MOVLB     0x0                ctrl_trf_state = WAIT_SETUP;                                                 C:\3DAQ\firmware\system\usb\usbctrltrf\usbctrltrf.c
001108   6bea     CLRF      0xea,0x1                                                                                        
00110a   6beb     CLRF      0xeb,0x1           ctrl_trf_session_owner = MUID_NULL;     // Set owner to NULL                 C:\3DAQ\firmware\system\usb\usbctrltrf\usbctrltrf.c
00110c   6bf0     CLRF      0xf0,0x1           wCount._word = 0;                                                            C:\3DAQ\firmware\system\usb\usbctrltrf\usbctrltrf.c
00110e   6bf1     CLRF      0xf1,0x1                                                                                        
                                                                                                                            C:\3DAQ\firmware\system\usb\usbctrltrf\usbctrltrf.c
                                               /* Stage 2 */                                                                C:\3DAQ\firmware\system\usb\usbctrltrf\usbctrltrf.c
001110   ecdf     CALL      0xdbe,0x0          USBCheckStdRequest();                   // See system\usb9\usb9.c            C:\3DAQ\firmware\system\usb\usbctrltrf\usbctrltrf.c
001112   f006                                                                                                               
                                                                                                                            C:\3DAQ\firmware\system\usb\usbctrltrf\usbctrltrf.c
                                               /* Modifiable Section */                                                     C:\3DAQ\firmware\system\usb\usbctrltrf\usbctrltrf.c
                                               // Insert other USB Device Class Request Handlers here                       C:\3DAQ\firmware\system\usb\usbctrltrf\usbctrltrf.c
                                               /* End Modifiable Section */                                                 C:\3DAQ\firmware\system\usb\usbctrltrf\usbctrltrf.c
                                                                                                                            C:\3DAQ\firmware\system\usb\usbctrltrf\usbctrltrf.c
                                               /* Stage 3 */                                                                C:\3DAQ\firmware\system\usb\usbctrltrf\usbctrltrf.c
001114   d8dd     RCALL     0x12d0             USBCtrlEPServiceComplete();                                                  C:\3DAQ\firmware\system\usb\usbctrltrf\usbctrltrf.c
                                                                                                                            C:\3DAQ\firmware\system\usb\usbctrltrf\usbctrltrf.c
001116   52e5     MOVF      0xe5,0x1,0x0   }//end USBCtrlTrfSetupHandler                                                    C:\3DAQ\firmware\system\usb\usbctrltrf\usbctrltrf.c
001118   52e5     MOVF      0xe5,0x1,0x0                                                                                    
00111a   cfe7     MOVFF     0xfe7,0xfd9                                                                                     
00111c   ffd9                                                                                                               
00111e   0012     RETURN    0x0                                                                                             
                                                                                                                            C:\3DAQ\firmware\system\usb\usbctrltrf\usbctrltrf.c
                                           /******************************************************************************  C:\3DAQ\firmware\system\usb\usbctrltrf\usbctrltrf.c
                                            * Function:        void USBCtrlTrfOutHandler(void)                              C:\3DAQ\firmware\system\usb\usbctrltrf\usbctrltrf.c
                                            *                                                                               C:\3DAQ\firmware\system\usb\usbctrltrf\usbctrltrf.c
                                            * PreCondition:    None                                                         C:\3DAQ\firmware\system\usb\usbctrltrf\usbctrltrf.c
                                            *                                                                               C:\3DAQ\firmware\system\usb\usbctrltrf\usbctrltrf.c
                                            * Input:           None                                                         C:\3DAQ\firmware\system\usb\usbctrltrf\usbctrltrf.c
                                            *                                                                               C:\3DAQ\firmware\system\usb\usbctrltrf\usbctrltrf.c
                                            * Output:          None                                                         C:\3DAQ\firmware\system\usb\usbctrltrf\usbctrltrf.c
                                            *                                                                               C:\3DAQ\firmware\system\usb\usbctrltrf\usbctrltrf.c
                                            * Side Effects:    None                                                         C:\3DAQ\firmware\system\usb\usbctrltrf\usbctrltrf.c
                                            *                                                                               C:\3DAQ\firmware\system\usb\usbctrltrf\usbctrltrf.c
                                            * Overview:        This routine handles an OUT transaction according to         C:\3DAQ\firmware\system\usb\usbctrltrf\usbctrltrf.c
                                            *                  which control transfer state is currently active.            C:\3DAQ\firmware\system\usb\usbctrltrf\usbctrltrf.c
                                            *                                                                               C:\3DAQ\firmware\system\usb\usbctrltrf\usbctrltrf.c
                                            * Note:            Note that if the the control transfer was from               C:\3DAQ\firmware\system\usb\usbctrltrf\usbctrltrf.c
                                            *                  host to device, the session owner should be notified         C:\3DAQ\firmware\system\usb\usbctrltrf\usbctrltrf.c
                                            *                  at the end of each OUT transaction to service the            C:\3DAQ\firmware\system\usb\usbctrltrf\usbctrltrf.c
                                            *                  received data.                                               C:\3DAQ\firmware\system\usb\usbctrltrf\usbctrltrf.c
                                            *                                                                               C:\3DAQ\firmware\system\usb\usbctrltrf\usbctrltrf.c
                                            *****************************************************************************/  C:\3DAQ\firmware\system\usb\usbctrltrf\usbctrltrf.c
                                           void USBCtrlTrfOutHandler(void)                                                  C:\3DAQ\firmware\system\usb\usbctrltrf\usbctrltrf.c
                                           {                                                                                C:\3DAQ\firmware\system\usb\usbctrltrf\usbctrltrf.c
001120   0e02     MOVLW     0x2                if(ctrl_trf_state == CTRL_TRF_RX)                                            C:\3DAQ\firmware\system\usb\usbctrltrf\usbctrltrf.c
001122   0100     MOVLB     0x0                                                                                             
001124   5dea     SUBWF     0xea,0x0,0x1                                                                                    
001126   e10a     BNZ       0x113c                                                                                          
                                               {                                                                            C:\3DAQ\firmware\system\usb\usbctrltrf\usbctrltrf.c
001128   d896     RCALL     0x1256                 USBCtrlTrfRxService();                                                   C:\3DAQ\firmware\system\usb\usbctrltrf\usbctrltrf.c
                                                                                                                            C:\3DAQ\firmware\system\usb\usbctrltrf\usbctrltrf.c
                                                   /*                                                                       C:\3DAQ\firmware\system\usb\usbctrltrf\usbctrltrf.c
                                                    * Don't have to worry about overwriting _KEEP bit                       C:\3DAQ\firmware\system\usb\usbctrltrf\usbctrltrf.c
                                                    * because if _KEEP was set, TRNIF would not have been                   C:\3DAQ\firmware\system\usb\usbctrltrf\usbctrltrf.c
                                                    * generated in the first place.                                         C:\3DAQ\firmware\system\usb\usbctrltrf\usbctrltrf.c
                                                    */                                                                      C:\3DAQ\firmware\system\usb\usbctrltrf\usbctrltrf.c
00112a   0104     MOVLB     0x4                    if(ep0Bo.Stat.DTS == 0)                                                  C:\3DAQ\firmware\system\usb\usbctrltrf\usbctrltrf.c
00112c   bd00     BTFSC     0x0,0x6,0x1                                                                                     
00112e   d003     BRA       0x1136                                                                                          
001130   0ec8     MOVLW     0xc8                       ep0Bo.Stat._byte = _USIE|_DAT1|_DTSEN;                               C:\3DAQ\firmware\system\usb\usbctrltrf\usbctrltrf.c
001132   6f00     MOVWF     0x0,0x1                                                                                         
001134   d002     BRA       0x113a                 else                                                                     C:\3DAQ\firmware\system\usb\usbctrltrf\usbctrltrf.c
001136   0e88     MOVLW     0x88                       ep0Bo.Stat._byte = _USIE|_DAT0|_DTSEN;                               C:\3DAQ\firmware\system\usb\usbctrltrf\usbctrltrf.c
001138   6f00     MOVWF     0x0,0x1                                                                                         
                                               }                                                                            C:\3DAQ\firmware\system\usb\usbctrltrf\usbctrltrf.c
00113a   d001     BRA       0x113e             else    // CTRL_TRF_TX                                                       C:\3DAQ\firmware\system\usb\usbctrltrf\usbctrltrf.c
00113c   d90f     RCALL     0x135c                 USBPrepareForNextSetupTrf();                                             C:\3DAQ\firmware\system\usb\usbctrltrf\usbctrltrf.c
                                                                                                                            C:\3DAQ\firmware\system\usb\usbctrltrf\usbctrltrf.c
00113e   0012     RETURN    0x0            }//end USBCtrlTrfOutHandler                                                      C:\3DAQ\firmware\system\usb\usbctrltrf\usbctrltrf.c
                                                                                                                            C:\3DAQ\firmware\system\usb\usbctrltrf\usbctrltrf.c
                                           /******************************************************************************  C:\3DAQ\firmware\system\usb\usbctrltrf\usbctrltrf.c
                                            * Function:        void USBCtrlTrfInHandler(void)                               C:\3DAQ\firmware\system\usb\usbctrltrf\usbctrltrf.c
                                            *                                                                               C:\3DAQ\firmware\system\usb\usbctrltrf\usbctrltrf.c
                                            * PreCondition:    None                                                         C:\3DAQ\firmware\system\usb\usbctrltrf\usbctrltrf.c
                                            *                                                                               C:\3DAQ\firmware\system\usb\usbctrltrf\usbctrltrf.c
                                            * Input:           None                                                         C:\3DAQ\firmware\system\usb\usbctrltrf\usbctrltrf.c
                                            *                                                                               C:\3DAQ\firmware\system\usb\usbctrltrf\usbctrltrf.c
                                            * Output:          None                                                         C:\3DAQ\firmware\system\usb\usbctrltrf\usbctrltrf.c
                                            *                                                                               C:\3DAQ\firmware\system\usb\usbctrltrf\usbctrltrf.c
                                            * Side Effects:    None                                                         C:\3DAQ\firmware\system\usb\usbctrltrf\usbctrltrf.c
                                            *                                                                               C:\3DAQ\firmware\system\usb\usbctrltrf\usbctrltrf.c
                                            * Overview:        This routine handles an IN transaction according to          C:\3DAQ\firmware\system\usb\usbctrltrf\usbctrltrf.c
                                            *                  which control transfer state is currently active.            C:\3DAQ\firmware\system\usb\usbctrltrf\usbctrltrf.c
                                            *                                                                               C:\3DAQ\firmware\system\usb\usbctrltrf\usbctrltrf.c
                                            *                                                                               C:\3DAQ\firmware\system\usb\usbctrltrf\usbctrltrf.c
                                            * Note:            A Set Address Request must not change the acutal address     C:\3DAQ\firmware\system\usb\usbctrltrf\usbctrltrf.c
                                            *                  of the device until the completion of the control            C:\3DAQ\firmware\system\usb\usbctrltrf\usbctrltrf.c
                                            *                  transfer. The end of the control transfer for Set Address    C:\3DAQ\firmware\system\usb\usbctrltrf\usbctrltrf.c
                                            *                  Request is an IN transaction. Therefore it is necessary      C:\3DAQ\firmware\system\usb\usbctrltrf\usbctrltrf.c
                                            *                  to service this unique situation when the condition is       C:\3DAQ\firmware\system\usb\usbctrltrf\usbctrltrf.c
                                            *                  right. Macro mUSBCheckAdrPendingState is defined in          C:\3DAQ\firmware\system\usb\usbctrltrf\usbctrltrf.c
                                            *                  usb9.h and its function is to specifically service this      C:\3DAQ\firmware\system\usb\usbctrltrf\usbctrltrf.c
                                            *                  event.                                                       C:\3DAQ\firmware\system\usb\usbctrltrf\usbctrltrf.c
                                            *****************************************************************************/  C:\3DAQ\firmware\system\usb\usbctrltrf\usbctrltrf.c
                                           void USBCtrlTrfInHandler(void)                                                   C:\3DAQ\firmware\system\usb\usbctrltrf\usbctrltrf.c
                                           {                                                                                C:\3DAQ\firmware\system\usb\usbctrltrf\usbctrltrf.c
001140   0e04     MOVLW     0x4                mUSBCheckAdrPendingState();         // Must check if in ADR_PENDING_STATE    C:\3DAQ\firmware\system\usb\usbctrltrf\usbctrltrf.c
001142   0100     MOVLB     0x0                                                                                             
001144   5df2     SUBWF     0xf2,0x0,0x1                                                                                    
001146   e10a     BNZ       0x115c                                                                                          
001148   c41a     MOVFF     0x41a,0xf6e                                                                                     
00114a   ff6e                                                                                                               
00114c   506e     MOVF      0x6e,0x0,0x0                                                                                    
00114e   0800     SUBLW     0x0                                                                                             
001150   e203     BC        0x1158                                                                                          
001152   0e05     MOVLW     0x5                                                                                             
001154   6ff2     MOVWF     0xf2,0x1                                                                                        
001156   d002     BRA       0x115c                                                                                          
001158   0e03     MOVLW     0x3                                                                                             
00115a   6ff2     MOVWF     0xf2,0x1                                                                                        
                                                                                                                            C:\3DAQ\firmware\system\usb\usbctrltrf\usbctrltrf.c
00115c   0100     MOVLB     0x0                if(ctrl_trf_state == CTRL_TRF_TX)                                            C:\3DAQ\firmware\system\usb\usbctrltrf\usbctrltrf.c
00115e   05ea     DECF      0xea,0x0,0x1                                                                                    
001160   e10a     BNZ       0x1176                                                                                          
                                               {                                                                            C:\3DAQ\firmware\system\usb\usbctrltrf\usbctrltrf.c
001162   d80b     RCALL     0x117a                 USBCtrlTrfTxService();                                                   C:\3DAQ\firmware\system\usb\usbctrltrf\usbctrltrf.c
                                                                                                                            C:\3DAQ\firmware\system\usb\usbctrltrf\usbctrltrf.c
001164   0104     MOVLB     0x4                    if(ep0Bi.Stat.DTS == 0)                                                  C:\3DAQ\firmware\system\usb\usbctrltrf\usbctrltrf.c
001166   bd04     BTFSC     0x4,0x6,0x1                                                                                     
001168   d003     BRA       0x1170                                                                                          
00116a   0ec8     MOVLW     0xc8                       ep0Bi.Stat._byte = _USIE|_DAT1|_DTSEN;                               C:\3DAQ\firmware\system\usb\usbctrltrf\usbctrltrf.c
00116c   6f04     MOVWF     0x4,0x1                                                                                         
00116e   d002     BRA       0x1174                 else                                                                     C:\3DAQ\firmware\system\usb\usbctrltrf\usbctrltrf.c
001170   0e88     MOVLW     0x88                       ep0Bi.Stat._byte = _USIE|_DAT0|_DTSEN;                               C:\3DAQ\firmware\system\usb\usbctrltrf\usbctrltrf.c
001172   6f04     MOVWF     0x4,0x1                                                                                         
                                               }                                                                            C:\3DAQ\firmware\system\usb\usbctrltrf\usbctrltrf.c
001174   d001     BRA       0x1178             else // CTRL_TRF_RX                                                          C:\3DAQ\firmware\system\usb\usbctrltrf\usbctrltrf.c
001176   d8f2     RCALL     0x135c                 USBPrepareForNextSetupTrf();                                             C:\3DAQ\firmware\system\usb\usbctrltrf\usbctrltrf.c
                                                                                                                            C:\3DAQ\firmware\system\usb\usbctrltrf\usbctrltrf.c
001178   0012     RETURN    0x0            }//end USBCtrlTrfInHandler                                                       C:\3DAQ\firmware\system\usb\usbctrltrf\usbctrltrf.c
                                                                                                                            C:\3DAQ\firmware\system\usb\usbctrltrf\usbctrltrf.c
                                           /******************************************************************************  C:\3DAQ\firmware\system\usb\usbctrltrf\usbctrltrf.c
                                            * Function:        void USBCtrlTrfTxService(void)                               C:\3DAQ\firmware\system\usb\usbctrltrf\usbctrltrf.c
                                            *                                                                               C:\3DAQ\firmware\system\usb\usbctrltrf\usbctrltrf.c
                                            * PreCondition:    pSrc, wCount, and usb_stat.ctrl_trf_mem are setup properly.  C:\3DAQ\firmware\system\usb\usbctrltrf\usbctrltrf.c
                                            *                                                                               C:\3DAQ\firmware\system\usb\usbctrltrf\usbctrltrf.c
                                            * Input:           None                                                         C:\3DAQ\firmware\system\usb\usbctrltrf\usbctrltrf.c
                                            *                                                                               C:\3DAQ\firmware\system\usb\usbctrltrf\usbctrltrf.c
                                            * Output:          None                                                         C:\3DAQ\firmware\system\usb\usbctrltrf\usbctrltrf.c
                                            *                                                                               C:\3DAQ\firmware\system\usb\usbctrltrf\usbctrltrf.c
                                            * Side Effects:    None                                                         C:\3DAQ\firmware\system\usb\usbctrltrf\usbctrltrf.c
                                            *                                                                               C:\3DAQ\firmware\system\usb\usbctrltrf\usbctrltrf.c
                                            * Overview:        This routine should be called from only two places.          C:\3DAQ\firmware\system\usb\usbctrltrf\usbctrltrf.c
                                            *                  One from USBCtrlEPServiceComplete() and one from             C:\3DAQ\firmware\system\usb\usbctrltrf\usbctrltrf.c
                                            *                  USBCtrlTrfInHandler(). It takes care of managing a           C:\3DAQ\firmware\system\usb\usbctrltrf\usbctrltrf.c
                                            *                  transfer over multiple USB transactions.                     C:\3DAQ\firmware\system\usb\usbctrltrf\usbctrltrf.c
                                            *                                                                               C:\3DAQ\firmware\system\usb\usbctrltrf\usbctrltrf.c
                                            * Note:            This routine works with isochronous endpoint larger than     C:\3DAQ\firmware\system\usb\usbctrltrf\usbctrltrf.c
                                            *                  256 bytes and is shown here as an example of how to deal     C:\3DAQ\firmware\system\usb\usbctrltrf\usbctrltrf.c
                                            *                  with BC9 and BC8. In reality, a control endpoint can never   C:\3DAQ\firmware\system\usb\usbctrltrf\usbctrltrf.c
                                            *                  be larger than 64 bytes.                                     C:\3DAQ\firmware\system\usb\usbctrltrf\usbctrltrf.c
                                            *****************************************************************************/  C:\3DAQ\firmware\system\usb\usbctrltrf\usbctrltrf.c
00117a   cfd9     MOVFF     0xfd9,0xfe6    void USBCtrlTrfTxService(void)                                                   C:\3DAQ\firmware\system\usb\usbctrltrf\usbctrltrf.c
00117c   ffe6                                                                                                               
00117e   cfe1     MOVFF     0xfe1,0xfd9                                                                                     
001180   ffd9                                                                                                               
001182   0e02     MOVLW     0x2                                                                                             
001184   26e1     ADDWF     0xe1,0x1,0x0                                                                                    
                                           {                                                                                C:\3DAQ\firmware\system\usb\usbctrltrf\usbctrltrf.c
                                               WORD byte_to_send;                                                           C:\3DAQ\firmware\system\usb\usbctrltrf\usbctrltrf.c
                                                                                                                            C:\3DAQ\firmware\system\usb\usbctrltrf\usbctrltrf.c
                                               /*                                                                           C:\3DAQ\firmware\system\usb\usbctrltrf\usbctrltrf.c
                                                * First, have to figure out how many byte of data to send.                  C:\3DAQ\firmware\system\usb\usbctrltrf\usbctrltrf.c
                                                */                                                                          C:\3DAQ\firmware\system\usb\usbctrltrf\usbctrltrf.c
001186   0100     MOVLB     0x0                if(wCount._word < EP0_BUFF_SIZE)                                             C:\3DAQ\firmware\system\usb\usbctrltrf\usbctrltrf.c
001188   0e08     MOVLW     0x8                                                                                             
00118a   5df0     SUBWF     0xf0,0x0,0x1                                                                                    
00118c   0e00     MOVLW     0x0                                                                                             
00118e   59f1     SUBWFB    0xf1,0x0,0x1                                                                                    
001190   e205     BC        0x119c                                                                                          
001192   c0f0     MOVFF     0xf0,0xfde             byte_to_send._word = wCount._word;                                       C:\3DAQ\firmware\system\usb\usbctrltrf\usbctrltrf.c
001194   ffde                                                                                                               
001196   c0f1     MOVFF     0xf1,0xfdd                                                                                      
001198   ffdd                                                                                                               
00119a   d003     BRA       0x11a2             else                                                                         C:\3DAQ\firmware\system\usb\usbctrltrf\usbctrltrf.c
00119c   0e08     MOVLW     0x8                    byte_to_send._word = EP0_BUFF_SIZE;                                      C:\3DAQ\firmware\system\usb\usbctrltrf\usbctrltrf.c
00119e   6ede     MOVWF     0xde,0x0                                                                                        
0011a0   6add     CLRF      0xdd,0x0                                                                                        
                                                                                                                            C:\3DAQ\firmware\system\usb\usbctrltrf\usbctrltrf.c
                                               /*                                                                           C:\3DAQ\firmware\system\usb\usbctrltrf\usbctrltrf.c
                                                * Next, load the number of bytes to send to BC9..0 in buffer descriptor     C:\3DAQ\firmware\system\usb\usbctrltrf\usbctrltrf.c
                                                */                                                                          C:\3DAQ\firmware\system\usb\usbctrltrf\usbctrltrf.c
0011a2   0104     MOVLB     0x4                ep0Bi.Stat.BC9 = 0;                                                          C:\3DAQ\firmware\system\usb\usbctrltrf\usbctrltrf.c
0011a4   9304     BCF       0x4,0x1,0x1                                                                                     
0011a6   9104     BCF       0x4,0x0,0x1        ep0Bi.Stat.BC8 = 0;                                                          C:\3DAQ\firmware\system\usb\usbctrltrf\usbctrltrf.c
0011a8   0e01     MOVLW     0x1                ep0Bi.Stat._byte |= MSB(byte_to_send);                                       C:\3DAQ\firmware\system\usb\usbctrltrf\usbctrltrf.c
0011aa   50db     MOVF      0xdb,0x0,0x0                                                                                    
0011ac   1304     IORWF     0x4,0x1,0x1                                                                                     
0011ae   cfdf     MOVFF     0xfdf,0x405        ep0Bi.Cnt = LSB(byte_to_send);                                               C:\3DAQ\firmware\system\usb\usbctrltrf\usbctrltrf.c
0011b0   f405                                                                                                               
                                                                                                                            C:\3DAQ\firmware\system\usb\usbctrltrf\usbctrltrf.c
                                               /*                                                                           C:\3DAQ\firmware\system\usb\usbctrltrf\usbctrltrf.c
                                                * Subtract the number of bytes just about to be sent from the total.        C:\3DAQ\firmware\system\usb\usbctrltrf\usbctrltrf.c
                                                */                                                                          C:\3DAQ\firmware\system\usb\usbctrltrf\usbctrltrf.c
0011b2   0e00     MOVLW     0x0                wCount._word = wCount._word - byte_to_send._word;                            C:\3DAQ\firmware\system\usb\usbctrltrf\usbctrltrf.c
0011b4   50db     MOVF      0xdb,0x0,0x0                                                                                    
0011b6   0100     MOVLB     0x0                                                                                             
0011b8   5ff0     SUBWF     0xf0,0x1,0x1                                                                                    
0011ba   0e01     MOVLW     0x1                                                                                             
0011bc   50db     MOVF      0xdb,0x0,0x0                                                                                    
0011be   5bf1     SUBWFB    0xf1,0x1,0x1                                                                                    
                                                                                                                            C:\3DAQ\firmware\system\usb\usbctrltrf\usbctrltrf.c
0011c0   0e20     MOVLW     0x20               pDst.bRam = (byte*)&CtrlTrfData;        // Set destination pointer           C:\3DAQ\firmware\system\usb\usbctrltrf\usbctrltrf.c
0011c2   6fee     MOVWF     0xee,0x1                                                                                        
0011c4   0e04     MOVLW     0x4                                                                                             
0011c6   6fef     MOVWF     0xef,0x1                                                                                        
                                                                                                                            C:\3DAQ\firmware\system\usb\usbctrltrf\usbctrltrf.c
0011c8   0100     MOVLB     0x0                if(usb_stat.ctrl_trf_mem == _ROM)       // Determine type of memory source   C:\3DAQ\firmware\system\usb\usbctrltrf\usbctrltrf.c
0011ca   a3f3     BTFSS     0xf3,0x1,0x1                                                                                    
0011cc   d01e     BRA       0x120a                                                                                          
                                               {                                                                            C:\3DAQ\firmware\system\usb\usbctrltrf\usbctrltrf.c
0011ce   cfd9     MOVFF     0xfd9,0xfe9            while(byte_to_send._word)                                                C:\3DAQ\firmware\system\usb\usbctrltrf\usbctrltrf.c
0011d0   ffe9                                                                                                               
0011d2   cfda     MOVFF     0xfda,0xfea                                                                                     
0011d4   ffea                                                                                                               
0011d6   50ee     MOVF      0xee,0x0,0x0                                                                                    
0011d8   10ed     IORWF     0xed,0x0,0x0                                                                                    
0011da   e016     BZ        0x1208                                                                                          
001206   d7e3     BRA       0x11ce                                                                                          
                                                   {                                                                        C:\3DAQ\firmware\system\usb\usbctrltrf\usbctrltrf.c
0011dc   c0ec     MOVFF     0xec,0xff6                 *pDst.bRam = *pSrc.bRom;                                             C:\3DAQ\firmware\system\usb\usbctrltrf\usbctrltrf.c
0011de   fff6                                                                                                               
0011e0   c0ed     MOVFF     0xed,0xff7                                                                                      
0011e2   fff7                                                                                                               
0011e4   0008     TBLRD                                                                                                     
0011e6   50f5     MOVF      0xf5,0x0,0x0                                                                                    
0011e8   c0ee     MOVFF     0xee,0xfe9                                                                                      
0011ea   ffe9                                                                                                               
0011ec   c0ef     MOVFF     0xef,0xfea                                                                                      
0011ee   ffea                                                                                                               
0011f0   6eef     MOVWF     0xef,0x0                                                                                        
0011f2   0100     MOVLB     0x0                        pDst.bRam++;                                                         C:\3DAQ\firmware\system\usb\usbctrltrf\usbctrltrf.c
0011f4   2bee     INCF      0xee,0x1,0x1                                                                                    
0011f6   0e00     MOVLW     0x0                                                                                             
0011f8   23ef     ADDWFC    0xef,0x1,0x1                                                                                    
0011fa   2bec     INCF      0xec,0x1,0x1               pSrc.bRom++;                                                         C:\3DAQ\firmware\system\usb\usbctrltrf\usbctrltrf.c
0011fc   23ed     ADDWFC    0xed,0x1,0x1                                                                                    
0011fe   06df     DECF      0xdf,0x1,0x0               byte_to_send._word--;                                                C:\3DAQ\firmware\system\usb\usbctrltrf\usbctrltrf.c
001200   0e01     MOVLW     0x1                                                                                             
001202   e201     BC        0x1206                                                                                          
001204   06db     DECF      0xdb,0x1,0x0                                                                                    
                                                   }//end while(byte_to_send._word)                                         C:\3DAQ\firmware\system\usb\usbctrltrf\usbctrltrf.c
                                               }                                                                            C:\3DAQ\firmware\system\usb\usbctrltrf\usbctrltrf.c
001208   d01c     BRA       0x1242             else // RAM                                                                  C:\3DAQ\firmware\system\usb\usbctrltrf\usbctrltrf.c
                                               {                                                                            C:\3DAQ\firmware\system\usb\usbctrltrf\usbctrltrf.c
00120a   cfd9     MOVFF     0xfd9,0xfe9            while(byte_to_send._word)                                                C:\3DAQ\firmware\system\usb\usbctrltrf\usbctrltrf.c
00120c   ffe9                                                                                                               
00120e   cfda     MOVFF     0xfda,0xfea                                                                                     
001210   ffea                                                                                                               
001212   50ee     MOVF      0xee,0x0,0x0                                                                                    
001214   10ed     IORWF     0xed,0x0,0x0                                                                                    
001216   e015     BZ        0x1242                                                                                          
001240   d7e4     BRA       0x120a                                                                                          
                                                   {                                                                        C:\3DAQ\firmware\system\usb\usbctrltrf\usbctrltrf.c
001218   c0ec     MOVFF     0xec,0xfe9                 *pDst.bRam = *pSrc.bRam;                                             C:\3DAQ\firmware\system\usb\usbctrltrf\usbctrltrf.c
00121a   ffe9                                                                                                               
00121c   c0ed     MOVFF     0xed,0xfea                                                                                      
00121e   ffea                                                                                                               
001220   50ef     MOVF      0xef,0x0,0x0                                                                                    
001222   c0ee     MOVFF     0xee,0xfe9                                                                                      
001224   ffe9                                                                                                               
001226   c0ef     MOVFF     0xef,0xfea                                                                                      
001228   ffea                                                                                                               
00122a   6eef     MOVWF     0xef,0x0                                                                                        
00122c   0100     MOVLB     0x0                        pDst.bRam++;                                                         C:\3DAQ\firmware\system\usb\usbctrltrf\usbctrltrf.c
00122e   2bee     INCF      0xee,0x1,0x1                                                                                    
001230   0e00     MOVLW     0x0                                                                                             
001232   23ef     ADDWFC    0xef,0x1,0x1                                                                                    
001234   2bec     INCF      0xec,0x1,0x1               pSrc.bRam++;                                                         C:\3DAQ\firmware\system\usb\usbctrltrf\usbctrltrf.c
001236   23ed     ADDWFC    0xed,0x1,0x1                                                                                    
001238   06df     DECF      0xdf,0x1,0x0               byte_to_send._word--;                                                C:\3DAQ\firmware\system\usb\usbctrltrf\usbctrltrf.c
00123a   0e01     MOVLW     0x1                                                                                             
00123c   e201     BC        0x1240                                                                                          
00123e   06db     DECF      0xdb,0x1,0x0                                                                                    
                                                   }//end while(byte_to_send._word)                                         C:\3DAQ\firmware\system\usb\usbctrltrf\usbctrltrf.c
                                               }//end if(usb_stat.ctrl_trf_mem == _ROM)                                     C:\3DAQ\firmware\system\usb\usbctrltrf\usbctrltrf.c
                                                                                                                            C:\3DAQ\firmware\system\usb\usbctrltrf\usbctrltrf.c
001242   0e02     MOVLW     0x2            }//end USBCtrlTrfTxService                                                       C:\3DAQ\firmware\system\usb\usbctrltrf\usbctrltrf.c
001244   5ce1     SUBWF     0xe1,0x0,0x0                                                                                    
001246   e202     BC        0x124c                                                                                          
001248   6ae1     CLRF      0xe1,0x0                                                                                        
00124a   52e5     MOVF      0xe5,0x1,0x0                                                                                    
00124c   6ee1     MOVWF     0xe1,0x0                                                                                        
00124e   52e5     MOVF      0xe5,0x1,0x0                                                                                    
001250   cfe7     MOVFF     0xfe7,0xfd9                                                                                     
001252   ffd9                                                                                                               
001254   0012     RETURN    0x0                                                                                             
                                                                                                                            C:\3DAQ\firmware\system\usb\usbctrltrf\usbctrltrf.c
                                           /******************************************************************************  C:\3DAQ\firmware\system\usb\usbctrltrf\usbctrltrf.c
                                            * Function:        void USBCtrlTrfRxService(void)                               C:\3DAQ\firmware\system\usb\usbctrltrf\usbctrltrf.c
                                            *                                                                               C:\3DAQ\firmware\system\usb\usbctrltrf\usbctrltrf.c
                                            * PreCondition:    pDst and wCount are setup properly.                          C:\3DAQ\firmware\system\usb\usbctrltrf\usbctrltrf.c
                                            *                  pSrc is always &CtrlTrfData                                  C:\3DAQ\firmware\system\usb\usbctrltrf\usbctrltrf.c
                                            *                  usb_stat.ctrl_trf_mem is always _RAM.                        C:\3DAQ\firmware\system\usb\usbctrltrf\usbctrltrf.c
                                            *                  wCount should be set to 0 at the start of each control       C:\3DAQ\firmware\system\usb\usbctrltrf\usbctrltrf.c
                                            *                  transfer.                                                    C:\3DAQ\firmware\system\usb\usbctrltrf\usbctrltrf.c
                                            *                                                                               C:\3DAQ\firmware\system\usb\usbctrltrf\usbctrltrf.c
                                            * Input:           None                                                         C:\3DAQ\firmware\system\usb\usbctrltrf\usbctrltrf.c
                                            *                                                                               C:\3DAQ\firmware\system\usb\usbctrltrf\usbctrltrf.c
                                            * Output:          None                                                         C:\3DAQ\firmware\system\usb\usbctrltrf\usbctrltrf.c
                                            *                                                                               C:\3DAQ\firmware\system\usb\usbctrltrf\usbctrltrf.c
                                            * Side Effects:    None                                                         C:\3DAQ\firmware\system\usb\usbctrltrf\usbctrltrf.c
                                            *                                                                               C:\3DAQ\firmware\system\usb\usbctrltrf\usbctrltrf.c
                                            * Overview:        *** This routine is only partially complete. Check for       C:\3DAQ\firmware\system\usb\usbctrltrf\usbctrltrf.c
                                            *                  new version of the firmware.                                 C:\3DAQ\firmware\system\usb\usbctrltrf\usbctrltrf.c
                                            *                                                                               C:\3DAQ\firmware\system\usb\usbctrltrf\usbctrltrf.c
                                            * Note:            None                                                         C:\3DAQ\firmware\system\usb\usbctrltrf\usbctrltrf.c
                                            *****************************************************************************/  C:\3DAQ\firmware\system\usb\usbctrltrf\usbctrltrf.c
001256   cfd9     MOVFF     0xfd9,0xfe6    void USBCtrlTrfRxService(void)                                                   C:\3DAQ\firmware\system\usb\usbctrltrf\usbctrltrf.c
001258   ffe6                                                                                                               
00125a   cfe1     MOVFF     0xfe1,0xfd9                                                                                     
00125c   ffd9                                                                                                               
00125e   0e02     MOVLW     0x2                                                                                             
001260   26e1     ADDWF     0xe1,0x1,0x0                                                                                    
                                           {                                                                                C:\3DAQ\firmware\system\usb\usbctrltrf\usbctrltrf.c
                                               WORD byte_to_read;                                                           C:\3DAQ\firmware\system\usb\usbctrltrf\usbctrltrf.c
                                                                                                                            C:\3DAQ\firmware\system\usb\usbctrltrf\usbctrltrf.c
001262   0e03     MOVLW     0x3                MSB(byte_to_read) = 0x03 & ep0Bo.Stat._byte;    // Filter out last 2 bits    C:\3DAQ\firmware\system\usb\usbctrltrf\usbctrltrf.c
001264   0104     MOVLB     0x4                                                                                             
001266   1500     ANDWF     0x0,0x0,0x1                                                                                     
001268   6ee7     MOVWF     0xe7,0x0                                                                                        
00126a   0e01     MOVLW     0x1                                                                                             
00126c   cfe7     MOVFF     0xfe7,0xfdb                                                                                     
00126e   ffdb                                                                                                               
001270   c401     MOVFF     0x401,0xfdf        LSB(byte_to_read) = ep0Bo.Cnt;                                               C:\3DAQ\firmware\system\usb\usbctrltrf\usbctrltrf.c
001272   ffdf                                                                                                               
                                                                                                                            C:\3DAQ\firmware\system\usb\usbctrltrf\usbctrltrf.c
                                               /*                                                                           C:\3DAQ\firmware\system\usb\usbctrltrf\usbctrltrf.c
                                                * Accumulate total number of bytes read                                     C:\3DAQ\firmware\system\usb\usbctrltrf\usbctrltrf.c
                                                */                                                                          C:\3DAQ\firmware\system\usb\usbctrltrf\usbctrltrf.c
001274   50de     MOVF      0xde,0x0,0x0       wCount._word = wCount._word + byte_to_read._word;                            C:\3DAQ\firmware\system\usb\usbctrltrf\usbctrltrf.c
001276   0100     MOVLB     0x0                                                                                             
001278   27f0     ADDWF     0xf0,0x1,0x1                                                                                    
00127a   50dd     MOVF      0xdd,0x0,0x0                                                                                    
00127c   23f1     ADDWFC    0xf1,0x1,0x1                                                                                    
                                                                                                                            C:\3DAQ\firmware\system\usb\usbctrltrf\usbctrltrf.c
00127e   0e20     MOVLW     0x20               pSrc.bRam = (byte*)&CtrlTrfData;                                             C:\3DAQ\firmware\system\usb\usbctrltrf\usbctrltrf.c
001280   6fec     MOVWF     0xec,0x1                                                                                        
001282   0e04     MOVLW     0x4                                                                                             
001284   6fed     MOVWF     0xed,0x1                                                                                        
                                                                                                                            C:\3DAQ\firmware\system\usb\usbctrltrf\usbctrltrf.c
001286   cfd9     MOVFF     0xfd9,0xfe9        while(byte_to_read._word)                                                    C:\3DAQ\firmware\system\usb\usbctrltrf\usbctrltrf.c
001288   ffe9                                                                                                               
00128a   cfda     MOVFF     0xfda,0xfea                                                                                     
00128c   ffea                                                                                                               
00128e   50ee     MOVF      0xee,0x0,0x0                                                                                    
001290   10ed     IORWF     0xed,0x0,0x0                                                                                    
001292   e014     BZ        0x12bc                                                                                          
0012ba   d7e5     BRA       0x1286                                                                                          
                                               {                                                                            C:\3DAQ\firmware\system\usb\usbctrltrf\usbctrltrf.c
001294   c0ec     MOVFF     0xec,0xfe9             *pDst.bRam = *pSrc.bRam;                                                 C:\3DAQ\firmware\system\usb\usbctrltrf\usbctrltrf.c
001296   ffe9                                                                                                               
001298   c0ed     MOVFF     0xed,0xfea                                                                                      
00129a   ffea                                                                                                               
00129c   50ef     MOVF      0xef,0x0,0x0                                                                                    
00129e   c0ee     MOVFF     0xee,0xfe9                                                                                      
0012a0   ffe9                                                                                                               
0012a2   c0ef     MOVFF     0xef,0xfea                                                                                      
0012a4   ffea                                                                                                               
0012a6   6eef     MOVWF     0xef,0x0                                                                                        
0012a8   2bee     INCF      0xee,0x1,0x1           pDst.bRam++;                                                             C:\3DAQ\firmware\system\usb\usbctrltrf\usbctrltrf.c
0012aa   0e00     MOVLW     0x0                                                                                             
0012ac   23ef     ADDWFC    0xef,0x1,0x1                                                                                    
0012ae   2bec     INCF      0xec,0x1,0x1           pSrc.bRam++;                                                             C:\3DAQ\firmware\system\usb\usbctrltrf\usbctrltrf.c
0012b0   23ed     ADDWFC    0xed,0x1,0x1                                                                                    
0012b2   06df     DECF      0xdf,0x1,0x0           byte_to_read._word--;                                                    C:\3DAQ\firmware\system\usb\usbctrltrf\usbctrltrf.c
0012b4   0e01     MOVLW     0x1                                                                                             
0012b6   e201     BC        0x12ba                                                                                          
0012b8   06db     DECF      0xdb,0x1,0x0                                                                                    
                                               }//end while(byte_to_read._word)                                             C:\3DAQ\firmware\system\usb\usbctrltrf\usbctrltrf.c
                                                                                                                            C:\3DAQ\firmware\system\usb\usbctrltrf\usbctrltrf.c
0012bc   0e02     MOVLW     0x2            }//end USBCtrlTrfRxService                                                       C:\3DAQ\firmware\system\usb\usbctrltrf\usbctrltrf.c
0012be   5ce1     SUBWF     0xe1,0x0,0x0                                                                                    
0012c0   e202     BC        0x12c6                                                                                          
0012c2   6ae1     CLRF      0xe1,0x0                                                                                        
0012c4   52e5     MOVF      0xe5,0x1,0x0                                                                                    
0012c6   6ee1     MOVWF     0xe1,0x0                                                                                        
0012c8   52e5     MOVF      0xe5,0x1,0x0                                                                                    
0012ca   cfe7     MOVFF     0xfe7,0xfd9                                                                                     
0012cc   ffd9                                                                                                               
0012ce   0012     RETURN    0x0                                                                                             
                                                                                                                            C:\3DAQ\firmware\system\usb\usbctrltrf\usbctrltrf.c
                                           /******************************************************************************  C:\3DAQ\firmware\system\usb\usbctrltrf\usbctrltrf.c
                                            * Function:        void USBCtrlEPServiceComplete(void)                          C:\3DAQ\firmware\system\usb\usbctrltrf\usbctrltrf.c
                                            *                                                                               C:\3DAQ\firmware\system\usb\usbctrltrf\usbctrltrf.c
                                            * PreCondition:    None                                                         C:\3DAQ\firmware\system\usb\usbctrltrf\usbctrltrf.c
                                            *                                                                               C:\3DAQ\firmware\system\usb\usbctrltrf\usbctrltrf.c
                                            * Input:           None                                                         C:\3DAQ\firmware\system\usb\usbctrltrf\usbctrltrf.c
                                            *                                                                               C:\3DAQ\firmware\system\usb\usbctrltrf\usbctrltrf.c
                                            * Output:          None                                                         C:\3DAQ\firmware\system\usb\usbctrltrf\usbctrltrf.c
                                            *                                                                               C:\3DAQ\firmware\system\usb\usbctrltrf\usbctrltrf.c
                                            * Side Effects:    None                                                         C:\3DAQ\firmware\system\usb\usbctrltrf\usbctrltrf.c
                                            *                                                                               C:\3DAQ\firmware\system\usb\usbctrltrf\usbctrltrf.c
                                            * Overview:        This routine wrap up the ramaining tasks in servicing        C:\3DAQ\firmware\system\usb\usbctrltrf\usbctrltrf.c
                                            *                  a Setup Request. Its main task is to set the endpoint        C:\3DAQ\firmware\system\usb\usbctrltrf\usbctrltrf.c
                                            *                  controls appropriately for a given situation. See code       C:\3DAQ\firmware\system\usb\usbctrltrf\usbctrltrf.c
                                            *                  below.                                                       C:\3DAQ\firmware\system\usb\usbctrltrf\usbctrltrf.c
                                            *                  There are three main scenarios:                              C:\3DAQ\firmware\system\usb\usbctrltrf\usbctrltrf.c
                                            *                  a) There was no handler for the Request, in this case        C:\3DAQ\firmware\system\usb\usbctrltrf\usbctrltrf.c
                                            *                     a STALL should be sent out.                               C:\3DAQ\firmware\system\usb\usbctrltrf\usbctrltrf.c
                                            *                  b) The host has requested a read control transfer,           C:\3DAQ\firmware\system\usb\usbctrltrf\usbctrltrf.c
                                            *                     endpoints are required to be setup in a specific way.     C:\3DAQ\firmware\system\usb\usbctrltrf\usbctrltrf.c
                                            *                  c) The host has requested a write control transfer, or       C:\3DAQ\firmware\system\usb\usbctrltrf\usbctrltrf.c
                                            *                     a control data stage is not required, endpoints are       C:\3DAQ\firmware\system\usb\usbctrltrf\usbctrltrf.c
                                            *                     required to be setup in a specific way.                   C:\3DAQ\firmware\system\usb\usbctrltrf\usbctrltrf.c
                                            *                                                                               C:\3DAQ\firmware\system\usb\usbctrltrf\usbctrltrf.c
                                            *                  Packet processing is resumed by clearing PKTDIS bit.         C:\3DAQ\firmware\system\usb\usbctrltrf\usbctrltrf.c
                                            *                                                                               C:\3DAQ\firmware\system\usb\usbctrltrf\usbctrltrf.c
                                            * Note:            None                                                         C:\3DAQ\firmware\system\usb\usbctrltrf\usbctrltrf.c
                                            *****************************************************************************/  C:\3DAQ\firmware\system\usb\usbctrltrf\usbctrltrf.c
                                           void USBCtrlEPServiceComplete(void)                                              C:\3DAQ\firmware\system\usb\usbctrltrf\usbctrltrf.c
                                           {                                                                                C:\3DAQ\firmware\system\usb\usbctrltrf\usbctrltrf.c
0012d0   0100     MOVLB     0x0                if(ctrl_trf_session_owner == MUID_NULL)                                      C:\3DAQ\firmware\system\usb\usbctrltrf\usbctrltrf.c
0012d2   51eb     MOVF      0xeb,0x0,0x1                                                                                    
0012d4   e10c     BNZ       0x12ee                                                                                          
                                               {                                                                            C:\3DAQ\firmware\system\usb\usbctrltrf\usbctrltrf.c
                                                   /*                                                                       C:\3DAQ\firmware\system\usb\usbctrltrf\usbctrltrf.c
                                                    * If no one knows how to service this request then stall.               C:\3DAQ\firmware\system\usb\usbctrltrf\usbctrltrf.c
                                                    * Must also prepare EP0 to receive the next SETUP transaction.          C:\3DAQ\firmware\system\usb\usbctrltrf\usbctrltrf.c
                                                    */                                                                      C:\3DAQ\firmware\system\usb\usbctrltrf\usbctrltrf.c
0012d6   0104     MOVLB     0x4                    ep0Bo.Cnt = EP0_BUFF_SIZE;                                               C:\3DAQ\firmware\system\usb\usbctrltrf\usbctrltrf.c
0012d8   0e08     MOVLW     0x8                                                                                             
0012da   6f01     MOVWF     0x1,0x1                                                                                         
0012dc   0e18     MOVLW     0x18                   ep0Bo.ADR = (byte*)&SetupPkt;                                            C:\3DAQ\firmware\system\usb\usbctrltrf\usbctrltrf.c
0012de   6f02     MOVWF     0x2,0x1                                                                                         
0012e0   0e04     MOVLW     0x4                                                                                             
0012e2   6f03     MOVWF     0x3,0x1                                                                                         
                                                                                                                            C:\3DAQ\firmware\system\usb\usbctrltrf\usbctrltrf.c
0012e4   0e84     MOVLW     0x84                   ep0Bo.Stat._byte = _USIE|_BSTALL;                                        C:\3DAQ\firmware\system\usb\usbctrltrf\usbctrltrf.c
0012e6   6f00     MOVWF     0x0,0x1                                                                                         
0012e8   0104     MOVLB     0x4                    ep0Bi.Stat._byte = _USIE|_BSTALL;                                        C:\3DAQ\firmware\system\usb\usbctrltrf\usbctrltrf.c
0012ea   6f04     MOVWF     0x4,0x1                                                                                         
                                               }                                                                            C:\3DAQ\firmware\system\usb\usbctrltrf\usbctrltrf.c
0012ec   d035     BRA       0x1358             else    // A module has claimed ownership of the control transfer session.   C:\3DAQ\firmware\system\usb\usbctrltrf\usbctrltrf.c
                                               {                                                                            C:\3DAQ\firmware\system\usb\usbctrltrf\usbctrltrf.c
0012ee   0104     MOVLB     0x4                    if(SetupPkt.DataDir == DEV_TO_HOST)                                      C:\3DAQ\firmware\system\usb\usbctrltrf\usbctrltrf.c
0012f0   af18     BTFSS     0x18,0x7,0x1                                                                                    
0012f2   d022     BRA       0x1338                                                                                          
                                                   {                                                                        C:\3DAQ\firmware\system\usb\usbctrltrf\usbctrltrf.c
0012f4   0100     MOVLB     0x0                        if(SetupPkt.wLength < wCount._word)                                  C:\3DAQ\firmware\system\usb\usbctrltrf\usbctrltrf.c
0012f6   51f0     MOVF      0xf0,0x0,0x1                                                                                    
0012f8   0104     MOVLB     0x4                                                                                             
0012fa   5d1e     SUBWF     0x1e,0x0,0x1                                                                                    
0012fc   0100     MOVLB     0x0                                                                                             
0012fe   51f1     MOVF      0xf1,0x0,0x1                                                                                    
001300   0104     MOVLB     0x4                                                                                             
001302   591f     SUBWFB    0x1f,0x0,0x1                                                                                    
001304   e204     BC        0x130e                                                                                          
001306   c41e     MOVFF     0x41e,0xf0                     wCount._word = SetupPkt.wLength;                                 C:\3DAQ\firmware\system\usb\usbctrltrf\usbctrltrf.c
001308   f0f0                                                                                                               
00130a   c41f     MOVFF     0x41f,0xf1                                                                                      
00130c   f0f1                                                                                                               
00130e   df35     RCALL     0x117a                     USBCtrlTrfTxService();                                               C:\3DAQ\firmware\system\usb\usbctrltrf\usbctrltrf.c
001310   0100     MOVLB     0x0                        ctrl_trf_state = CTRL_TRF_TX;                                        C:\3DAQ\firmware\system\usb\usbctrltrf\usbctrltrf.c
001312   0e01     MOVLW     0x1                                                                                             
001314   6fea     MOVWF     0xea,0x1                                                                                        
                                                       /*                                                                   C:\3DAQ\firmware\system\usb\usbctrltrf\usbctrltrf.c
                                                        * Control Read:                                                     C:\3DAQ\firmware\system\usb\usbctrltrf\usbctrltrf.c
                                                        * <SETUP[0]><IN[1]><IN[0]>...<OUT[1]> | <SETUP[0]>                  C:\3DAQ\firmware\system\usb\usbctrltrf\usbctrltrf.c
                                                        * 1. Prepare OUT EP to respond to early termination                 C:\3DAQ\firmware\system\usb\usbctrltrf\usbctrltrf.c
                                                        *                                                                   C:\3DAQ\firmware\system\usb\usbctrltrf\usbctrltrf.c
                                                        * NOTE:                                                             C:\3DAQ\firmware\system\usb\usbctrltrf\usbctrltrf.c
                                                        * If something went wrong during the control transfer,              C:\3DAQ\firmware\system\usb\usbctrltrf\usbctrltrf.c
                                                        * the last status stage may not be sent by the host.                C:\3DAQ\firmware\system\usb\usbctrltrf\usbctrltrf.c
                                                        * When this happens, two different things could happen              C:\3DAQ\firmware\system\usb\usbctrltrf\usbctrltrf.c
                                                        * depending on the host.                                            C:\3DAQ\firmware\system\usb\usbctrltrf\usbctrltrf.c
                                                        * a) The host could send out a RESET.                               C:\3DAQ\firmware\system\usb\usbctrltrf\usbctrltrf.c
                                                        * b) The host could send out a new SETUP transaction                C:\3DAQ\firmware\system\usb\usbctrltrf\usbctrltrf.c
                                                        *    without sending a RESET first.                                 C:\3DAQ\firmware\system\usb\usbctrltrf\usbctrltrf.c
                                                        * To properly handle case (b), the OUT EP must be setup             C:\3DAQ\firmware\system\usb\usbctrltrf\usbctrltrf.c
                                                        * to receive either a zero length OUT transaction, or a             C:\3DAQ\firmware\system\usb\usbctrltrf\usbctrltrf.c
                                                        * new SETUP transaction.                                            C:\3DAQ\firmware\system\usb\usbctrltrf\usbctrltrf.c
                                                        *                                                                   C:\3DAQ\firmware\system\usb\usbctrltrf\usbctrltrf.c
                                                        * Since the SETUP transaction requires the DTS bit to be            C:\3DAQ\firmware\system\usb\usbctrltrf\usbctrltrf.c
                                                        * DAT0 while the zero length OUT status requires the DTS            C:\3DAQ\firmware\system\usb\usbctrltrf\usbctrltrf.c
                                                        * bit to be DAT1, the DTS bit check by the hardware should          C:\3DAQ\firmware\system\usb\usbctrltrf\usbctrltrf.c
                                                        * be disabled. This way the SIE could accept either of              C:\3DAQ\firmware\system\usb\usbctrltrf\usbctrltrf.c
                                                        * the two transactions.                                             C:\3DAQ\firmware\system\usb\usbctrltrf\usbctrltrf.c
                                                        *                                                                   C:\3DAQ\firmware\system\usb\usbctrltrf\usbctrltrf.c
                                                        * Furthermore, the Cnt byte should be set to prepare for            C:\3DAQ\firmware\system\usb\usbctrltrf\usbctrltrf.c
                                                        * the SETUP data (8-byte or more), and the buffer address           C:\3DAQ\firmware\system\usb\usbctrltrf\usbctrltrf.c
                                                        * should be pointed to SetupPkt.                                    C:\3DAQ\firmware\system\usb\usbctrltrf\usbctrltrf.c
                                                        */                                                                  C:\3DAQ\firmware\system\usb\usbctrltrf\usbctrltrf.c
001316   0104     MOVLB     0x4                        ep0Bo.Cnt = EP0_BUFF_SIZE;                                           C:\3DAQ\firmware\system\usb\usbctrltrf\usbctrltrf.c
001318   0e08     MOVLW     0x8                                                                                             
00131a   6f01     MOVWF     0x1,0x1                                                                                         
00131c   0e18     MOVLW     0x18                       ep0Bo.ADR = (byte*)&SetupPkt;                                        C:\3DAQ\firmware\system\usb\usbctrltrf\usbctrltrf.c
00131e   6f02     MOVWF     0x2,0x1                                                                                         
001320   0e04     MOVLW     0x4                                                                                             
001322   6f03     MOVWF     0x3,0x1                                                                                         
001324   0e80     MOVLW     0x80                       ep0Bo.Stat._byte = _USIE;           // Note: DTSEN is 0!             C:\3DAQ\firmware\system\usb\usbctrltrf\usbctrltrf.c
001326   6f00     MOVWF     0x0,0x1                                                                                         
                                                                                                                            C:\3DAQ\firmware\system\usb\usbctrltrf\usbctrltrf.c
                                                       /*                                                                   C:\3DAQ\firmware\system\usb\usbctrltrf\usbctrltrf.c
                                                        * 2. Prepare IN EP to transfer data, Cnt should have                C:\3DAQ\firmware\system\usb\usbctrltrf\usbctrltrf.c
                                                        *    been initialized by responsible request owner.                 C:\3DAQ\firmware\system\usb\usbctrltrf\usbctrltrf.c
                                                        */                                                                  C:\3DAQ\firmware\system\usb\usbctrltrf\usbctrltrf.c
001328   0104     MOVLB     0x4                        ep0Bi.ADR = (byte*)&CtrlTrfData;                                     C:\3DAQ\firmware\system\usb\usbctrltrf\usbctrltrf.c
00132a   0e20     MOVLW     0x20                                                                                            
00132c   6f06     MOVWF     0x6,0x1                                                                                         
00132e   0e04     MOVLW     0x4                                                                                             
001330   6f07     MOVWF     0x7,0x1                                                                                         
001332   0ec8     MOVLW     0xc8                       ep0Bi.Stat._byte = _USIE|_DAT1|_DTSEN;                               C:\3DAQ\firmware\system\usb\usbctrltrf\usbctrltrf.c
001334   6f04     MOVWF     0x4,0x1                                                                                         
                                                   }                                                                        C:\3DAQ\firmware\system\usb\usbctrltrf\usbctrltrf.c
001336   d010     BRA       0x1358                 else    // (SetupPkt.DataDir == HOST_TO_DEV)                             C:\3DAQ\firmware\system\usb\usbctrltrf\usbctrltrf.c
                                                   {                                                                        C:\3DAQ\firmware\system\usb\usbctrltrf\usbctrltrf.c
001338   0100     MOVLB     0x0                        ctrl_trf_state = CTRL_TRF_RX;                                        C:\3DAQ\firmware\system\usb\usbctrltrf\usbctrltrf.c
00133a   0e02     MOVLW     0x2                                                                                             
00133c   6fea     MOVWF     0xea,0x1                                                                                        
                                                       /*                                                                   C:\3DAQ\firmware\system\usb\usbctrltrf\usbctrltrf.c
                                                        * Control Write:                                                    C:\3DAQ\firmware\system\usb\usbctrltrf\usbctrltrf.c
                                                        * <SETUP[0]><OUT[1]><OUT[0]>...<IN[1]> | <SETUP[0]>                 C:\3DAQ\firmware\system\usb\usbctrltrf\usbctrltrf.c
                                                        *                                                                   C:\3DAQ\firmware\system\usb\usbctrltrf\usbctrltrf.c
                                                        * 1. Prepare IN EP to respond to early termination                  C:\3DAQ\firmware\system\usb\usbctrltrf\usbctrltrf.c
                                                        *                                                                   C:\3DAQ\firmware\system\usb\usbctrltrf\usbctrltrf.c
                                                        *    This is the same as a Zero Length Packet Response              C:\3DAQ\firmware\system\usb\usbctrltrf\usbctrltrf.c
                                                        *    for control transfer without a data stage                      C:\3DAQ\firmware\system\usb\usbctrltrf\usbctrltrf.c
                                                        */                                                                  C:\3DAQ\firmware\system\usb\usbctrltrf\usbctrltrf.c
00133e   0104     MOVLB     0x4                        ep0Bi.Cnt = 0;                                                       C:\3DAQ\firmware\system\usb\usbctrltrf\usbctrltrf.c
001340   6b05     CLRF      0x5,0x1                                                                                         
001342   0ec8     MOVLW     0xc8                       ep0Bi.Stat._byte = _USIE|_DAT1|_DTSEN;                               C:\3DAQ\firmware\system\usb\usbctrltrf\usbctrltrf.c
001344   6f04     MOVWF     0x4,0x1                                                                                         
                                                                                                                            C:\3DAQ\firmware\system\usb\usbctrltrf\usbctrltrf.c
                                                       /*                                                                   C:\3DAQ\firmware\system\usb\usbctrltrf\usbctrltrf.c
                                                        * 2. Prepare OUT EP to receive data.                                C:\3DAQ\firmware\system\usb\usbctrltrf\usbctrltrf.c
                                                        */                                                                  C:\3DAQ\firmware\system\usb\usbctrltrf\usbctrltrf.c
001346   0104     MOVLB     0x4                        ep0Bo.Cnt = EP0_BUFF_SIZE;                                           C:\3DAQ\firmware\system\usb\usbctrltrf\usbctrltrf.c
001348   0e08     MOVLW     0x8                                                                                             
00134a   6f01     MOVWF     0x1,0x1                                                                                         
00134c   0e20     MOVLW     0x20                       ep0Bo.ADR = (byte*)&CtrlTrfData;                                     C:\3DAQ\firmware\system\usb\usbctrltrf\usbctrltrf.c
00134e   6f02     MOVWF     0x2,0x1                                                                                         
001350   0e04     MOVLW     0x4                                                                                             
001352   6f03     MOVWF     0x3,0x1                                                                                         
001354   0ec8     MOVLW     0xc8                       ep0Bo.Stat._byte = _USIE|_DAT1|_DTSEN;                               C:\3DAQ\firmware\system\usb\usbctrltrf\usbctrltrf.c
001356   6f00     MOVWF     0x0,0x1                                                                                         
                                                   }//end if(SetupPkt.DataDir == DEV_TO_HOST)                               C:\3DAQ\firmware\system\usb\usbctrltrf\usbctrltrf.c
                                               }//end if(ctrl_trf_session_owner == MUID_NULL)                               C:\3DAQ\firmware\system\usb\usbctrltrf\usbctrltrf.c
                                                                                                                            C:\3DAQ\firmware\system\usb\usbctrltrf\usbctrltrf.c
                                               /*                                                                           C:\3DAQ\firmware\system\usb\usbctrltrf\usbctrltrf.c
                                                * PKTDIS bit is set when a Setup Transaction is received.                   C:\3DAQ\firmware\system\usb\usbctrltrf\usbctrltrf.c
                                                * Clear to resume packet processing.                                        C:\3DAQ\firmware\system\usb\usbctrltrf\usbctrltrf.c
                                                */                                                                          C:\3DAQ\firmware\system\usb\usbctrltrf\usbctrltrf.c
001358   986d     BCF       0x6d,0x4,0x0       UCONbits.PKTDIS = 0;                                                         C:\3DAQ\firmware\system\usb\usbctrltrf\usbctrltrf.c
                                                                                                                            C:\3DAQ\firmware\system\usb\usbctrltrf\usbctrltrf.c
00135a   0012     RETURN    0x0            }//end USBCtrlEPServiceComplete                                                  C:\3DAQ\firmware\system\usb\usbctrltrf\usbctrltrf.c
                                                                                                                            C:\3DAQ\firmware\system\usb\usbctrltrf\usbctrltrf.c
                                           /******************************************************************************  C:\3DAQ\firmware\system\usb\usbctrltrf\usbctrltrf.c
                                            * Function:        void USBPrepareForNextSetupTrf(void)                         C:\3DAQ\firmware\system\usb\usbctrltrf\usbctrltrf.c
                                            *                                                                               C:\3DAQ\firmware\system\usb\usbctrltrf\usbctrltrf.c
                                            * PreCondition:    None                                                         C:\3DAQ\firmware\system\usb\usbctrltrf\usbctrltrf.c
                                            *                                                                               C:\3DAQ\firmware\system\usb\usbctrltrf\usbctrltrf.c
                                            * Input:           None                                                         C:\3DAQ\firmware\system\usb\usbctrltrf\usbctrltrf.c
                                            *                                                                               C:\3DAQ\firmware\system\usb\usbctrltrf\usbctrltrf.c
                                            * Output:          None                                                         C:\3DAQ\firmware\system\usb\usbctrltrf\usbctrltrf.c
                                            *                                                                               C:\3DAQ\firmware\system\usb\usbctrltrf\usbctrltrf.c
                                            * Side Effects:    None                                                         C:\3DAQ\firmware\system\usb\usbctrltrf\usbctrltrf.c
                                            *                                                                               C:\3DAQ\firmware\system\usb\usbctrltrf\usbctrltrf.c
                                            * Overview:        The routine forces EP0 OUT to be ready for a new Setup       C:\3DAQ\firmware\system\usb\usbctrltrf\usbctrltrf.c
                                            *                  transaction, and forces EP0 IN to be owned by CPU.           C:\3DAQ\firmware\system\usb\usbctrltrf\usbctrltrf.c
                                            *                                                                               C:\3DAQ\firmware\system\usb\usbctrltrf\usbctrltrf.c
                                            * Note:            None                                                         C:\3DAQ\firmware\system\usb\usbctrltrf\usbctrltrf.c
                                            *****************************************************************************/  C:\3DAQ\firmware\system\usb\usbctrltrf\usbctrltrf.c
                                           void USBPrepareForNextSetupTrf(void)                                             C:\3DAQ\firmware\system\usb\usbctrltrf\usbctrltrf.c
                                           {                                                                                C:\3DAQ\firmware\system\usb\usbctrltrf\usbctrltrf.c
00135c   0100     MOVLB     0x0                ctrl_trf_state = WAIT_SETUP;            // See usbctrltrf.h                  C:\3DAQ\firmware\system\usb\usbctrltrf\usbctrltrf.c
00135e   6bea     CLRF      0xea,0x1                                                                                        
001360   0104     MOVLB     0x4                ep0Bo.Cnt = EP0_BUFF_SIZE;              // Defined in usbcfg.h               C:\3DAQ\firmware\system\usb\usbctrltrf\usbctrltrf.c
001362   0e08     MOVLW     0x8                                                                                             
001364   6f01     MOVWF     0x1,0x1                                                                                         
001366   0e18     MOVLW     0x18               ep0Bo.ADR = (byte*)&SetupPkt;                                                C:\3DAQ\firmware\system\usb\usbctrltrf\usbctrltrf.c
001368   6f02     MOVWF     0x2,0x1                                                                                         
00136a   0e04     MOVLW     0x4                                                                                             
00136c   6f03     MOVWF     0x3,0x1                                                                                         
00136e   0e88     MOVLW     0x88               ep0Bo.Stat._byte = _USIE|_DAT0|_DTSEN;  // EP0 buff dsc init, see usbmmap.h  C:\3DAQ\firmware\system\usb\usbctrltrf\usbctrltrf.c
001370   6f00     MOVWF     0x0,0x1                                                                                         
001372   0104     MOVLB     0x4                ep0Bi.Stat._byte = _UCPU;               // EP0 IN buffer initialization      C:\3DAQ\firmware\system\usb\usbctrltrf\usbctrltrf.c
001374   6b04     CLRF      0x4,0x1                                                                                         
001376   0012     RETURN    0x0            }//end USBPrepareForNextSetupTrf                                                 C:\3DAQ\firmware\system\usb\usbctrltrf\usbctrltrf.c
                                                                                                                            C:\3DAQ\firmware\system\usb\usbctrltrf\usbctrltrf.c
                                           /** EOF usbctrltrf.c *********************************************************/  C:\3DAQ\firmware\system\usb\usbctrltrf\usbctrltrf.c
                                           /** I N C L U D E S **********************************************************/  C:\3DAQ\firmware\user\user.c
                                           #include <p18cxxx.h>                                                             C:\3DAQ\firmware\user\user.c
                                           #include <usart.h>                                                               C:\3DAQ\firmware\user\user.c
                                           #include "system\typedefs.h"                                                     C:\3DAQ\firmware\user\user.c
                                                                                                                            C:\3DAQ\firmware\user\user.c
                                           #include "system\usb\usb.h"                                                      C:\3DAQ\firmware\user\user.c
                                                                                                                            C:\3DAQ\firmware\user\user.c
                                           #include "io_cfg.h"             // I/O pin mapping                               C:\3DAQ\firmware\user\user.c
                                           #include "user\user.h"                                                           C:\3DAQ\firmware\user\user.c
                                                                                                                            C:\3DAQ\firmware\user\user.c
                                           /** V A R I A B L E S ********************************************************/  C:\3DAQ\firmware\user\user.c
                                           #pragma udata                                                                    C:\3DAQ\firmware\user\user.c
                                                                                                                            C:\3DAQ\firmware\user\user.c
                                           byte counter;                                                                    C:\3DAQ\firmware\user\user.c
                                           byte trf_state;                                                                  C:\3DAQ\firmware\user\user.c
                                                                                                                            C:\3DAQ\firmware\user\user.c
                                           DATA_PACKET dataPacket;                                                          C:\3DAQ\firmware\user\user.c
                                                                                                                            C:\3DAQ\firmware\user\user.c
                                           byte pTemp;                     // Pointer to current logging position, will     C:\3DAQ\firmware\user\user.c
                                                                           // loop to zero once the max index is reached    C:\3DAQ\firmware\user\user.c
                                           byte valid_temp;                // Keeps count of the valid data points          C:\3DAQ\firmware\user\user.c
                                           word temp_data[30];             // 30 points of data                             C:\3DAQ\firmware\user\user.c
                                                                                                                            C:\3DAQ\firmware\user\user.c
                                           // Timer0 - 1 second interval setup.                                             C:\3DAQ\firmware\user\user.c
                                           // Fosc/4 = 12MHz                                                                C:\3DAQ\firmware\user\user.c
                                           // Use /256 prescalar, this brings counter freq down to 46,875 Hz                C:\3DAQ\firmware\user\user.c
                                           // Timer0 should = 65536 - 46875 = 18661 or 0x48E5                               C:\3DAQ\firmware\user\user.c
                                           #define TIMER0L_VAL         0xE5                                                 C:\3DAQ\firmware\user\user.c
                                           #define TIMER0H_VAL         0x48                                                 C:\3DAQ\firmware\user\user.c
                                                                                                                            C:\3DAQ\firmware\user\user.c
                                           /** P R I V A T E  P R O T O T Y P E S ***************************************/  C:\3DAQ\firmware\user\user.c
                                                                                                                            C:\3DAQ\firmware\user\user.c
                                           void BlinkUSBStatus(void);                                                       C:\3DAQ\firmware\user\user.c
                                           void ServiceRequests(void);                                                      C:\3DAQ\firmware\user\user.c
                                           void ResetTempLog(void);                                                         C:\3DAQ\firmware\user\user.c
                                                                                                                            C:\3DAQ\firmware\user\user.c
                                           //UCAM                                                                           C:\3DAQ\firmware\user\user.c
                                           byte ReadPOT(void);                                                              C:\3DAQ\firmware\user\user.c
                                           void Blink(byte);                                                                C:\3DAQ\firmware\user\user.c
                                                                                                                            C:\3DAQ\firmware\user\user.c
                                           /** D E C L A R A T I O N S **************************************************/  C:\3DAQ\firmware\user\user.c
                                           #pragma code                                                                     C:\3DAQ\firmware\user\user.c
                                                                                                                            C:\3DAQ\firmware\user\user.c
                                                                                                                            C:\3DAQ\firmware\user\user.c
                                                                                                                            C:\3DAQ\firmware\user\user.c
                                           /******************************************************************************  C:\3DAQ\firmware\user\user.c
                                            * Function:        void ProcessIO(void)                                         C:\3DAQ\firmware\user\user.c
                                            *                                                                               C:\3DAQ\firmware\user\user.c
                                            * PreCondition:    None                                                         C:\3DAQ\firmware\user\user.c
                                            *                                                                               C:\3DAQ\firmware\user\user.c
                                            * Input:           None                                                         C:\3DAQ\firmware\user\user.c
                                            *                                                                               C:\3DAQ\firmware\user\user.c
                                            * Output:          None                                                         C:\3DAQ\firmware\user\user.c
                                            *                                                                               C:\3DAQ\firmware\user\user.c
                                            * Side Effects:    None                                                         C:\3DAQ\firmware\user\user.c
                                            *                                                                               C:\3DAQ\firmware\user\user.c
                                            * Overview:        This function is a place holder for other user routines.     C:\3DAQ\firmware\user\user.c
                                            *                  It is a mixture of both USB and non-USB tasks.               C:\3DAQ\firmware\user\user.c
                                            *                                                                               C:\3DAQ\firmware\user\user.c
                                            * Note:            None                                                         C:\3DAQ\firmware\user\user.c
                                            *****************************************************************************/  C:\3DAQ\firmware\user\user.c
                                           void ProcessIO(void)                                                             C:\3DAQ\firmware\user\user.c
                                           {                                                                                C:\3DAQ\firmware\user\user.c
                                               //BlinkUSBStatus();                                                          C:\3DAQ\firmware\user\user.c
                                                                                                                            C:\3DAQ\firmware\user\user.c
                                               // User Application USB tasks                                                C:\3DAQ\firmware\user\user.c
000838   0e06     MOVLW     0x6                if((usb_device_state < CONFIGURED_STATE)||(UCONbits.SUSPND==1)) return;      C:\3DAQ\firmware\user\user.c
00083a   0100     MOVLB     0x0                                                                                             
00083c   5df2     SUBWF     0xf2,0x0,0x1                                                                                    
00083e   e303     BNC       0x846                                                                                           
000840   506d     MOVF      0x6d,0x0,0x0                                                                                    
000842   0b02     ANDLW     0x2                                                                                             
000844   e001     BZ        0x848                                                                                           
000846   d001     BRA       0x84a                                                                                           
                                                                                                                            C:\3DAQ\firmware\user\user.c
                                               //UCAM                                                                       C:\3DAQ\firmware\user\user.c
000848   d801     RCALL     0x84c              ServiceRequests();                                                           C:\3DAQ\firmware\user\user.c
                                                                                                                            C:\3DAQ\firmware\user\user.c
00084a   0012     RETURN    0x0            }//end ProcessIO                                                                 C:\3DAQ\firmware\user\user.c
                                                                                                                            C:\3DAQ\firmware\user\user.c
                                                                                                                            C:\3DAQ\firmware\user\user.c
00084c   cfd9     MOVFF     0xfd9,0xfe6    void ServiceRequests(void)                                                       C:\3DAQ\firmware\user\user.c
00084e   ffe6                                                                                                               
000850   cfe1     MOVFF     0xfe1,0xfd9                                                                                     
000852   ffd9                                                                                                               
000854   0e07     MOVLW     0x7                                                                                             
000856   26e1     ADDWF     0xe1,0x1,0x0                                                                                    
                                           {                                                                                C:\3DAQ\firmware\user\user.c
                                               byte index;                                                                  C:\3DAQ\firmware\user\user.c
                                                                                                                            C:\3DAQ\firmware\user\user.c
000858   0e01     MOVLW     0x1            	int i = 0;                                                                      C:\3DAQ\firmware\user\user.c
00085a   6adb     CLRF      0xdb,0x0                                                                                        
00085c   0e02     MOVLW     0x2                                                                                             
00085e   6adb     CLRF      0xdb,0x0                                                                                        
000860   0e03     MOVLW     0x3            	int q = 0;                                                                      C:\3DAQ\firmware\user\user.c
000862   6adb     CLRF      0xdb,0x0                                                                                        
000864   0e04     MOVLW     0x4                                                                                             
000866   6adb     CLRF      0xdb,0x0                                                                                        
000868   0e05     MOVLW     0x5            	int temp = 0;                                                                   C:\3DAQ\firmware\user\user.c
00086a   6adb     CLRF      0xdb,0x0                                                                                        
00086c   0e06     MOVLW     0x6                                                                                             
00086e   6adb     CLRF      0xdb,0x0                                                                                        
                                                                                                                            C:\3DAQ\firmware\user\user.c
000870   0e40     MOVLW     0x40               if(USBGenRead((byte*)&dataPacket,sizeof(dataPacket)))                        C:\3DAQ\firmware\user\user.c
000872   6ee6     MOVWF     0xe6,0x0                                                                                        
000874   0e62     MOVLW     0x62                                                                                            
000876   6ee6     MOVWF     0xe6,0x0                                                                                        
000878   0e00     MOVLW     0x0                                                                                             
00087a   6ee6     MOVWF     0xe6,0x0                                                                                        
00087c   ecc2     CALL      0x1584,0x0                                                                                      
00087e   f00a                                                                                                               
000880   52e5     MOVF      0xe5,0x1,0x0                                                                                    
000882   52e5     MOVF      0xe5,0x1,0x0                                                                                    
000884   52e5     MOVF      0xe5,0x1,0x0                                                                                    
000886   0900     IORLW     0x0                                                                                             
000888   e101     BNZ       0x88c                                                                                           
00088a   d093     BRA       0x9b2                                                                                           
                                               {                                                                            C:\3DAQ\firmware\user\user.c
00088c   0100     MOVLB     0x0                    counter = 0;                                                             C:\3DAQ\firmware\user\user.c
00088e   6b60     CLRF      0x60,0x1                                                                                        
000890   0100     MOVLB     0x0                    switch(dataPacket.CMD)                                                   C:\3DAQ\firmware\user\user.c
000892   5162     MOVF      0x62,0x0,0x1                                                                                    
000894   0aff     XORLW     0xff                                                                                            
000896   e101     BNZ       0x89a                                                                                           
000898   d078     BRA       0x98a                                                                                           
00089a   0a12     XORLW     0x12                                                                                            
00089c   e06f     BZ        0x97c                                                                                           
00089e   0a03     XORLW     0x3                                                                                             
0008a0   e065     BZ        0x96c                                                                                           
0008a2   0adc     XORLW     0xdc                                                                                            
0008a4   e02e     BZ        0x902                                                                                           
0008a6   0a03     XORLW     0x3                                                                                             
0008a8   e00c     BZ        0x8c2                                                                                           
0008aa   0a31     XORLW     0x31                                                                                            
0008ac   e001     BZ        0x8b0                                                                                           
0008ae   d06f     BRA       0x98e                                                                                           
                                                   {                                                                        C:\3DAQ\firmware\user\user.c
                                                       case READ_VERSION:                                                   C:\3DAQ\firmware\user\user.c
                                                           //dataPacket._byte[1] is len                                     C:\3DAQ\firmware\user\user.c
0008b0   0100     MOVLB     0x0                            dataPacket._byte[2] = MINOR_VERSION;                             C:\3DAQ\firmware\user\user.c
0008b2   6b64     CLRF      0x64,0x1                                                                                        
0008b4   0100     MOVLB     0x0                            dataPacket._byte[3] = MAJOR_VERSION;                             C:\3DAQ\firmware\user\user.c
0008b6   0e01     MOVLW     0x1                                                                                             
0008b8   6f65     MOVWF     0x65,0x1                                                                                        
0008ba   0100     MOVLB     0x0                            counter=0x04;                                                    C:\3DAQ\firmware\user\user.c
0008bc   0e04     MOVLW     0x4                                                                                             
0008be   6f60     MOVWF     0x60,0x1                                                                                        
0008c0   d067     BRA       0x990                          break;                                                           C:\3DAQ\firmware\user\user.c
                                                                                                                            C:\3DAQ\firmware\user\user.c
                                                       case ID_BOARD:                                                       C:\3DAQ\firmware\user\user.c
0008c2   0100     MOVLB     0x0                            counter = 0x01;                                                  C:\3DAQ\firmware\user\user.c
0008c4   0e01     MOVLW     0x1                                                                                             
0008c6   6f60     MOVWF     0x60,0x1                                                                                        
0008c8   0100     MOVLB     0x0                            if(dataPacket.ID == 0)                                           C:\3DAQ\firmware\user\user.c
0008ca   5163     MOVF      0x63,0x0,0x1                                                                                    
0008cc   e103     BNZ       0x8d4                                                                                           
                                                           {                                                                C:\3DAQ\firmware\user\user.c
0008ce   948c     BCF       0x8c,0x2,0x0                       mLED_3_Off();mLED_4_Off();                                   C:\3DAQ\firmware\user\user.c
0008d0   968c     BCF       0x8c,0x3,0x0                                                                                    
                                                           }                                                                C:\3DAQ\firmware\user\user.c
0008d2   d016     BRA       0x900                          else if(dataPacket.ID == 1)                                      C:\3DAQ\firmware\user\user.c
0008d4   0100     MOVLB     0x0                                                                                             
0008d6   0563     DECF      0x63,0x0,0x1                                                                                    
0008d8   e103     BNZ       0x8e0                                                                                           
                                                           {                                                                C:\3DAQ\firmware\user\user.c
0008da   948c     BCF       0x8c,0x2,0x0                       mLED_3_Off();mLED_4_On();                                    C:\3DAQ\firmware\user\user.c
0008dc   868c     BSF       0x8c,0x3,0x0                                                                                    
                                                           }                                                                C:\3DAQ\firmware\user\user.c
0008de   d010     BRA       0x900                          else if(dataPacket.ID == 2)                                      C:\3DAQ\firmware\user\user.c
0008e0   0e02     MOVLW     0x2                                                                                             
0008e2   0100     MOVLB     0x0                                                                                             
0008e4   5d63     SUBWF     0x63,0x0,0x1                                                                                    
0008e6   e103     BNZ       0x8ee                                                                                           
                                                           {                                                                C:\3DAQ\firmware\user\user.c
0008e8   848c     BSF       0x8c,0x2,0x0                       mLED_3_On();mLED_4_Off();                                    C:\3DAQ\firmware\user\user.c
0008ea   968c     BCF       0x8c,0x3,0x0                                                                                    
                                                           }                                                                C:\3DAQ\firmware\user\user.c
0008ec   d009     BRA       0x900                          else if(dataPacket.ID == 3)                                      C:\3DAQ\firmware\user\user.c
0008ee   0e03     MOVLW     0x3                                                                                             
0008f0   0100     MOVLB     0x0                                                                                             
0008f2   5d63     SUBWF     0x63,0x0,0x1                                                                                    
0008f4   e103     BNZ       0x8fc                                                                                           
                                                           {                                                                C:\3DAQ\firmware\user\user.c
0008f6   848c     BSF       0x8c,0x2,0x0                       mLED_3_On();mLED_4_On();                                     C:\3DAQ\firmware\user\user.c
0008f8   868c     BSF       0x8c,0x3,0x0                                                                                    
                                                           }                                                                C:\3DAQ\firmware\user\user.c
0008fa   d002     BRA       0x900                          else                                                             C:\3DAQ\firmware\user\user.c
0008fc   0100     MOVLB     0x0                                counter = 0x00;                                              C:\3DAQ\firmware\user\user.c
0008fe   6b60     CLRF      0x60,0x1                                                                                        
000900   d047     BRA       0x990                          break;                                                           C:\3DAQ\firmware\user\user.c
                                                                                                                            C:\3DAQ\firmware\user\user.c
                                                       case UPDATE_LED:                                                     C:\3DAQ\firmware\user\user.c
                                                           // LED1 & LED2 were used as USB event indicators.                C:\3DAQ\firmware\user\user.c
000902   0100     MOVLB     0x0                            if(dataPacket.led_num == 1)                                      C:\3DAQ\firmware\user\user.c
000904   0563     DECF      0x63,0x0,0x1                                                                                    
000906   e109     BNZ       0x91a                                                                                           
                                                           {                                                                C:\3DAQ\firmware\user\user.c
000908   0100     MOVLB     0x0                                mLED_1 = dataPacket.led_status;                              C:\3DAQ\firmware\user\user.c
00090a   5164     MOVF      0x64,0x0,0x1                                                                                    
00090c   b0e8     BTFSC     0xe8,0x0,0x0                                                                                    
00090e   808c     BSF       0x8c,0x0,0x0                                                                                    
000910   a0e8     BTFSS     0xe8,0x0,0x0                                                                                    
000912   908c     BCF       0x8c,0x0,0x0                                                                                    
000914   0100     MOVLB     0x0                                counter = 0x01;                                              C:\3DAQ\firmware\user\user.c
000916   0e01     MOVLW     0x1                                                                                             
000918   6f60     MOVWF     0x60,0x1                                                                                        
                                                           }//end if                                                        C:\3DAQ\firmware\user\user.c
00091a   0e02     MOVLW     0x2                            if(dataPacket.led_num == 2)                                      C:\3DAQ\firmware\user\user.c
00091c   0100     MOVLB     0x0                                                                                             
00091e   5d63     SUBWF     0x63,0x0,0x1                                                                                    
000920   e109     BNZ       0x934                                                                                           
                                                           {                                                                C:\3DAQ\firmware\user\user.c
000922   0100     MOVLB     0x0                                mLED_2 = dataPacket.led_status;                              C:\3DAQ\firmware\user\user.c
000924   5164     MOVF      0x64,0x0,0x1                                                                                    
000926   b0e8     BTFSC     0xe8,0x0,0x0                                                                                    
000928   828c     BSF       0x8c,0x1,0x0                                                                                    
00092a   a0e8     BTFSS     0xe8,0x0,0x0                                                                                    
00092c   928c     BCF       0x8c,0x1,0x0                                                                                    
00092e   0100     MOVLB     0x0                                counter = 0x01;                                              C:\3DAQ\firmware\user\user.c
000930   0e01     MOVLW     0x1                                                                                             
000932   6f60     MOVWF     0x60,0x1                                                                                        
                                                           }//end if                                                        C:\3DAQ\firmware\user\user.c
000934   0e03     MOVLW     0x3                            if(dataPacket.led_num == 3)                                      C:\3DAQ\firmware\user\user.c
000936   0100     MOVLB     0x0                                                                                             
000938   5d63     SUBWF     0x63,0x0,0x1                                                                                    
00093a   e10a     BNZ       0x950                                                                                           
                                                           {                                                                C:\3DAQ\firmware\user\user.c
00093c   0100     MOVLB     0x0                                mLED_3 = dataPacket.led_status;                              C:\3DAQ\firmware\user\user.c
00093e   5164     MOVF      0x64,0x0,0x1                                                                                    
000940   b0e8     BTFSC     0xe8,0x0,0x0                                                                                    
000942   848c     BSF       0x8c,0x2,0x0                                                                                    
000944   a0e8     BTFSS     0xe8,0x0,0x0                                                                                    
000946   948c     BCF       0x8c,0x2,0x0                                                                                    
000948   0100     MOVLB     0x0                                counter = 0x01;                                              C:\3DAQ\firmware\user\user.c
00094a   0e01     MOVLW     0x1                                                                                             
00094c   6f60     MOVWF     0x60,0x1                                                                                        
                                                           }//end if                                                        C:\3DAQ\firmware\user\user.c
00094e   d00d     BRA       0x96a                          else if(dataPacket.led_num == 4)                                 C:\3DAQ\firmware\user\user.c
000950   0e04     MOVLW     0x4                                                                                             
000952   0100     MOVLB     0x0                                                                                             
000954   5d63     SUBWF     0x63,0x0,0x1                                                                                    
000956   e109     BNZ       0x96a                                                                                           
                                                           {                                                                C:\3DAQ\firmware\user\user.c
000958   0100     MOVLB     0x0                                mLED_4 = dataPacket.led_status;                              C:\3DAQ\firmware\user\user.c
00095a   5164     MOVF      0x64,0x0,0x1                                                                                    
00095c   b0e8     BTFSC     0xe8,0x0,0x0                                                                                    
00095e   868c     BSF       0x8c,0x3,0x0                                                                                    
000960   a0e8     BTFSS     0xe8,0x0,0x0                                                                                    
000962   968c     BCF       0x8c,0x3,0x0                                                                                    
000964   0100     MOVLB     0x0                                counter = 0x01;                                              C:\3DAQ\firmware\user\user.c
000966   0e01     MOVLW     0x1                                                                                             
000968   6f60     MOVWF     0x60,0x1                                                                                        
                                                           }//end if else                                                   C:\3DAQ\firmware\user\user.c
00096a   d012     BRA       0x990                          break;                                                           C:\3DAQ\firmware\user\user.c
                                                                                                                            C:\3DAQ\firmware\user\user.c
                                                       //UCAM                                                               C:\3DAQ\firmware\user\user.c
                                                       case BLINK_LED_COMMAND: //[0xEE, Onstate]                            C:\3DAQ\firmware\user\user.c
                                                       	//Return the sum of the numbers, note no overflow protection present, to keep simplicity. C:\3DAQ\firmware\user\user.c
00096c   c063     MOVFF     0x63,0xfe6                     Blink(dataPacket._byte[1]);                                      C:\3DAQ\firmware\user\user.c
00096e   ffe6                                                                                                               
000970   d873     RCALL     0xa58                                                                                           
000972   52e5     MOVF      0xe5,0x1,0x0                                                                                    
000974   0100     MOVLB     0x0                            counter=0x02; //sends back same command                          C:\3DAQ\firmware\user\user.c
000976   0e02     MOVLW     0x2                                                                                             
000978   6f60     MOVWF     0x60,0x1                                                                                        
00097a   d00a     BRA       0x990                          break;                                                           C:\3DAQ\firmware\user\user.c
                                                      //UCAM                                                                C:\3DAQ\firmware\user\user.c
                                                      case GET_ADC_COMMAND: //[0xED. 8-bit data]                            C:\3DAQ\firmware\user\user.c
00097c   d879     RCALL     0xa70                          dataPacket._byte[1] = ReadPOT();                                 C:\3DAQ\firmware\user\user.c
00097e   0100     MOVLB     0x0                                                                                             
000980   6f63     MOVWF     0x63,0x1                                                                                        
000982   0100     MOVLB     0x0                            counter=0x02; //returns[0xED, command]                           C:\3DAQ\firmware\user\user.c
000984   0e02     MOVLW     0x2                                                                                             
000986   6f60     MOVWF     0x60,0x1                                                                                        
000988   d003     BRA       0x990                          break;                                                           C:\3DAQ\firmware\user\user.c
                                                                                                                            C:\3DAQ\firmware\user\user.c
                                                       case RESET:                                                          C:\3DAQ\firmware\user\user.c
00098a   00ff     RESET                                    Reset();                                                         C:\3DAQ\firmware\user\user.c
00098c   d001     BRA       0x990                          break;                                                           C:\3DAQ\firmware\user\user.c
                                                                                                                            C:\3DAQ\firmware\user\user.c
                                                       default:                                                             C:\3DAQ\firmware\user\user.c
00098e   d000     BRA       0x990                          break;                                                           C:\3DAQ\firmware\user\user.c
                                                   }//end switch()                                                          C:\3DAQ\firmware\user\user.c
000990   0100     MOVLB     0x0                    if(counter != 0)                                                         C:\3DAQ\firmware\user\user.c
000992   5160     MOVF      0x60,0x0,0x1                                                                                    
000994   e00e     BZ        0x9b2                                                                                           
                                                   {                                                                        C:\3DAQ\firmware\user\user.c
000996   0104     MOVLB     0x4                        if(!mUSBGenTxIsBusy())                                               C:\3DAQ\firmware\user\user.c
000998   bf0c     BTFSC     0xc,0x7,0x1                                                                                     
00099a   d00b     BRA       0x9b2                                                                                           
                                           				//Mod by Tim                                                                 C:\3DAQ\firmware\user\user.c
00099c   c060     MOVFF     0x60,0xfe6                     USBGenWrite((byte*)&dataPacket,counter);                         C:\3DAQ\firmware\user\user.c
00099e   ffe6                                                                                                               
0009a0   0e62     MOVLW     0x62                                                                                            
0009a2   6ee6     MOVWF     0xe6,0x0                                                                                        
0009a4   0e00     MOVLW     0x0                                                                                             
0009a6   6ee6     MOVWF     0xe6,0x0                                                                                        
0009a8   ec88     CALL      0x1510,0x0                                                                                      
0009aa   f00a                                                                                                               
0009ac   52e5     MOVF      0xe5,0x1,0x0                                                                                    
0009ae   52e5     MOVF      0xe5,0x1,0x0                                                                                    
0009b0   52e5     MOVF      0xe5,0x1,0x0                                                                                    
                                           				//USBGenWrite((byte*)&dataPacket,64);                                        C:\3DAQ\firmware\user\user.c
                                           				//end mod by Tim                                                             C:\3DAQ\firmware\user\user.c
                                                   }//end if                                                                C:\3DAQ\firmware\user\user.c
                                               }//end if                                                                    C:\3DAQ\firmware\user\user.c
0009b2   d000     BRA       0x9b4          return;                                                                          C:\3DAQ\firmware\user\user.c
0009b4   0e07     MOVLW     0x7            }//end ServiceRequests                                                           C:\3DAQ\firmware\user\user.c
0009b6   5ce1     SUBWF     0xe1,0x0,0x0                                                                                    
0009b8   e202     BC        0x9be                                                                                           
0009ba   6ae1     CLRF      0xe1,0x0                                                                                        
0009bc   52e5     MOVF      0xe5,0x1,0x0                                                                                    
0009be   6ee1     MOVWF     0xe1,0x0                                                                                        
0009c0   52e5     MOVF      0xe5,0x1,0x0                                                                                    
0009c2   cfe7     MOVFF     0xfe7,0xfd9                                                                                     
0009c4   ffd9                                                                                                               
0009c6   0012     RETURN    0x0                                                                                             
                                                                                                                            C:\3DAQ\firmware\user\user.c
                                           /******************************************************************************  C:\3DAQ\firmware\user\user.c
                                            * Function:        void BlinkUSBStatus(void)                                    C:\3DAQ\firmware\user\user.c
                                            *                                                                               C:\3DAQ\firmware\user\user.c
                                            * PreCondition:    None                                                         C:\3DAQ\firmware\user\user.c
                                            *                                                                               C:\3DAQ\firmware\user\user.c
                                            * Input:           None                                                         C:\3DAQ\firmware\user\user.c
                                            *                                                                               C:\3DAQ\firmware\user\user.c
                                            * Output:          None                                                         C:\3DAQ\firmware\user\user.c
                                            *                                                                               C:\3DAQ\firmware\user\user.c
                                            * Side Effects:    None                                                         C:\3DAQ\firmware\user\user.c
                                            *                                                                               C:\3DAQ\firmware\user\user.c
                                            * Overview:        BlinkUSBStatus turns on and off LEDs corresponding to        C:\3DAQ\firmware\user\user.c
                                            *                  the USB device state.                                        C:\3DAQ\firmware\user\user.c
                                            *                                                                               C:\3DAQ\firmware\user\user.c
                                            * Note:            mLED macros can be found in io_cfg.h                         C:\3DAQ\firmware\user\user.c
                                            *                  usb_device_state is declared in usbmmap.c and is modified    C:\3DAQ\firmware\user\user.c
                                            *                  in usbdrv.c, usbctrltrf.c, and usb9.c                        C:\3DAQ\firmware\user\user.c
                                            *****************************************************************************/  C:\3DAQ\firmware\user\user.c
                                           void BlinkUSBStatus(void)                                                        C:\3DAQ\firmware\user\user.c
                                           {                                                                                C:\3DAQ\firmware\user\user.c
                                               static word led_count=0;                                                     C:\3DAQ\firmware\user\user.c
                                                                                                                            C:\3DAQ\firmware\user\user.c
0009c8   0100     MOVLB     0x0                if(led_count == 0)led_count = 10000U;                                        C:\3DAQ\firmware\user\user.c
0009ca   51f8     MOVF      0xf8,0x0,0x1                                                                                    
0009cc   11f9     IORWF     0xf9,0x0,0x1                                                                                    
0009ce   e104     BNZ       0x9d8                                                                                           
0009d0   0e10     MOVLW     0x10                                                                                            
0009d2   6ff8     MOVWF     0xf8,0x1                                                                                        
0009d4   0e27     MOVLW     0x27                                                                                            
0009d6   6ff9     MOVWF     0xf9,0x1                                                                                        
0009d8   07f8     DECF      0xf8,0x1,0x1       led_count--;                                                                 C:\3DAQ\firmware\user\user.c
0009da   0e00     MOVLW     0x0                                                                                             
0009dc   5bf9     SUBWFB    0xf9,0x1,0x1                                                                                    
                                                                                                                            C:\3DAQ\firmware\user\user.c
                                                                                                                            C:\3DAQ\firmware\user\user.c
                                               #define mLED_Both_Off()         {mLED_1_Off();mLED_2_Off();}                 C:\3DAQ\firmware\user\user.c
                                               #define mLED_Both_On()          {mLED_1_On();mLED_2_On();}                   C:\3DAQ\firmware\user\user.c
                                               #define mLED_Only_1_On()        {mLED_1_On();mLED_2_Off();}                  C:\3DAQ\firmware\user\user.c
                                               #define mLED_Only_2_On()        {mLED_1_Off();mLED_2_On();}                  C:\3DAQ\firmware\user\user.c
                                                                                                                            C:\3DAQ\firmware\user\user.c
                                                                                                                            C:\3DAQ\firmware\user\user.c
0009de   a26d     BTFSS     0x6d,0x1,0x0       if(UCONbits.SUSPND == 1) //power conservation mode                           C:\3DAQ\firmware\user\user.c
0009e0   d00b     BRA       0x9f8                                                                                           
                                               {                                                                            C:\3DAQ\firmware\user\user.c
0009e2   51f8     MOVF      0xf8,0x0,0x1           if(led_count==0)                                                         C:\3DAQ\firmware\user\user.c
0009e4   11f9     IORWF     0xf9,0x0,0x1                                                                                    
0009e6   e107     BNZ       0x9f6                                                                                           
                                                   {                                                                        C:\3DAQ\firmware\user\user.c
0009e8   708c     BTG       0x8c,0x0,0x0               mLED_1_Toggle();                                                     C:\3DAQ\firmware\user\user.c
0009ea   508c     MOVF      0x8c,0x0,0x0               mLED_2 = mLED_1;        // Both blink at the same time               C:\3DAQ\firmware\user\user.c
0009ec   0b01     ANDLW     0x1                                                                                             
0009ee   e002     BZ        0x9f4                                                                                           
0009f0   828c     BSF       0x8c,0x1,0x0                                                                                    
0009f2   d001     BRA       0x9f6                                                                                           
0009f4   928c     BCF       0x8c,0x1,0x0                                                                                    
                                                   }//end if                                                                C:\3DAQ\firmware\user\user.c
                                               }                                                                            C:\3DAQ\firmware\user\user.c
0009f6   d02f     BRA       0xa56              else                                                                         C:\3DAQ\firmware\user\user.c
                                               {                                                                            C:\3DAQ\firmware\user\user.c
0009f8   0100     MOVLB     0x0                    if(usb_device_state == DETACHED_STATE)                                   C:\3DAQ\firmware\user\user.c
0009fa   51f2     MOVF      0xf2,0x0,0x1                                                                                    
0009fc   e103     BNZ       0xa04                                                                                           
                                                   {                                                                        C:\3DAQ\firmware\user\user.c
0009fe   908c     BCF       0x8c,0x0,0x0               mLED_Both_Off();                                                     C:\3DAQ\firmware\user\user.c
000a00   928c     BCF       0x8c,0x1,0x0                                                                                    
                                                                                                                            C:\3DAQ\firmware\user\user.c
                                                   }                                                                        C:\3DAQ\firmware\user\user.c
000a02   d029     BRA       0xa56                  else if(usb_device_state == ATTACHED_STATE)                              C:\3DAQ\firmware\user\user.c
000a04   05f2     DECF      0xf2,0x0,0x1                                                                                    
000a06   e103     BNZ       0xa0e                                                                                           
                                                   {                                                                        C:\3DAQ\firmware\user\user.c
000a08   808c     BSF       0x8c,0x0,0x0               mLED_Both_On();                                                      C:\3DAQ\firmware\user\user.c
000a0a   828c     BSF       0x8c,0x1,0x0                                                                                    
                                                   }                                                                        C:\3DAQ\firmware\user\user.c
000a0c   d024     BRA       0xa56                  else if(usb_device_state == POWERED_STATE)                               C:\3DAQ\firmware\user\user.c
000a0e   0e02     MOVLW     0x2                                                                                             
000a10   5df2     SUBWF     0xf2,0x0,0x1                                                                                    
000a12   e103     BNZ       0xa1a                                                                                           
                                                   {                                                                        C:\3DAQ\firmware\user\user.c
000a14   808c     BSF       0x8c,0x0,0x0               mLED_Only_1_On();                                                    C:\3DAQ\firmware\user\user.c
000a16   928c     BCF       0x8c,0x1,0x0                                                                                    
                                                   }                                                                        C:\3DAQ\firmware\user\user.c
000a18   d01e     BRA       0xa56                  else if(usb_device_state == DEFAULT_STATE)                               C:\3DAQ\firmware\user\user.c
000a1a   0e03     MOVLW     0x3                                                                                             
000a1c   5df2     SUBWF     0xf2,0x0,0x1                                                                                    
000a1e   e103     BNZ       0xa26                                                                                           
                                                   {                                                                        C:\3DAQ\firmware\user\user.c
000a20   908c     BCF       0x8c,0x0,0x0               mLED_Only_2_On();                                                    C:\3DAQ\firmware\user\user.c
000a22   828c     BSF       0x8c,0x1,0x0                                                                                    
                                                   }                                                                        C:\3DAQ\firmware\user\user.c
000a24   d018     BRA       0xa56                  else if(usb_device_state == ADDRESS_STATE)                               C:\3DAQ\firmware\user\user.c
000a26   0e05     MOVLW     0x5                                                                                             
000a28   5df2     SUBWF     0xf2,0x0,0x1                                                                                    
000a2a   e107     BNZ       0xa3a                                                                                           
                                                   {                                                                        C:\3DAQ\firmware\user\user.c
000a2c   0100     MOVLB     0x0                        if(led_count == 0)                                                   C:\3DAQ\firmware\user\user.c
000a2e   51f8     MOVF      0xf8,0x0,0x1                                                                                    
000a30   11f9     IORWF     0xf9,0x0,0x1                                                                                    
000a32   e102     BNZ       0xa38                                                                                           
                                                       {                                                                    C:\3DAQ\firmware\user\user.c
000a34   708c     BTG       0x8c,0x0,0x0                   mLED_1_Toggle();                                                 C:\3DAQ\firmware\user\user.c
000a36   928c     BCF       0x8c,0x1,0x0                   mLED_2_Off();                                                    C:\3DAQ\firmware\user\user.c
                                                       }//end if                                                            C:\3DAQ\firmware\user\user.c
                                                   }                                                                        C:\3DAQ\firmware\user\user.c
000a38   d00e     BRA       0xa56                  else if(usb_device_state == CONFIGURED_STATE)                            C:\3DAQ\firmware\user\user.c
000a3a   0e06     MOVLW     0x6                                                                                             
000a3c   5df2     SUBWF     0xf2,0x0,0x1                                                                                    
000a3e   e10b     BNZ       0xa56                                                                                           
                                                   {                                                                        C:\3DAQ\firmware\user\user.c
000a40   0100     MOVLB     0x0                        if(led_count==0)                                                     C:\3DAQ\firmware\user\user.c
000a42   51f8     MOVF      0xf8,0x0,0x1                                                                                    
000a44   11f9     IORWF     0xf9,0x0,0x1                                                                                    
000a46   e107     BNZ       0xa56                                                                                           
                                                       {                                                                    C:\3DAQ\firmware\user\user.c
000a48   708c     BTG       0x8c,0x0,0x0                   mLED_1_Toggle();                                                 C:\3DAQ\firmware\user\user.c
000a4a   508c     MOVF      0x8c,0x0,0x0                   mLED_2 = !mLED_1;       // Alternate blink                       C:\3DAQ\firmware\user\user.c
000a4c   0b01     ANDLW     0x1                                                                                             
000a4e   e002     BZ        0xa54                                                                                           
000a50   928c     BCF       0x8c,0x1,0x0                                                                                    
000a52   d001     BRA       0xa56                                                                                           
000a54   828c     BSF       0x8c,0x1,0x0                                                                                    
                                                       }//end if                                                            C:\3DAQ\firmware\user\user.c
                                                   }//end if(...)                                                           C:\3DAQ\firmware\user\user.c
                                               }//end if(UCONbits.SUSPND...)                                                C:\3DAQ\firmware\user\user.c
                                                                                                                            C:\3DAQ\firmware\user\user.c
000a56   0012     RETURN    0x0            }//end BlinkUSBStatus                                                            C:\3DAQ\firmware\user\user.c
                                                                                                                            C:\3DAQ\firmware\user\user.c
                                           //UCAM                                                                           C:\3DAQ\firmware\user\user.c
000a58   cfd9     MOVFF     0xfd9,0xfe6    void Blink(byte onState)                                                         C:\3DAQ\firmware\user\user.c
000a5a   ffe6                                                                                                               
000a5c   cfe1     MOVFF     0xfe1,0xfd9                                                                                     
000a5e   ffd9                                                                                                               
                                           //code section will blink LEDs 5 times                                           C:\3DAQ\firmware\user\user.c
                                           {                                                                                C:\3DAQ\firmware\user\user.c
000a60   0efe     MOVLW     0xfe           	LATD = onState;                                                                 C:\3DAQ\firmware\user\user.c
000a62   50db     MOVF      0xdb,0x0,0x0                                                                                    
000a64   6e8c     MOVWF     0x8c,0x0                                                                                        
000a66   d000     BRA       0xa68          	return;                                                                         C:\3DAQ\firmware\user\user.c
000a68   52e5     MOVF      0xe5,0x1,0x0   }//end CodeSectionAccessed                                                       C:\3DAQ\firmware\user\user.c
000a6a   cfe7     MOVFF     0xfe7,0xfd9                                                                                     
000a6c   ffd9                                                                                                               
000a6e   0012     RETURN    0x0                                                                                             
                                                                                                                            C:\3DAQ\firmware\user\user.c
000a70   cfd9     MOVFF     0xfd9,0xfe6    byte ReadPOT(void)                                                               C:\3DAQ\firmware\user\user.c
000a72   ffe6                                                                                                               
000a74   cfe1     MOVFF     0xfe1,0xfd9                                                                                     
000a76   ffd9                                                                                                               
000a78   0e02     MOVLW     0x2                                                                                             
000a7a   26e1     ADDWF     0xe1,0x1,0x0                                                                                    
                                           {                                                                                C:\3DAQ\firmware\user\user.c
                                           	byte low, high;                                                                 C:\3DAQ\firmware\user\user.c
                                                                                                                            C:\3DAQ\firmware\user\user.c
000a7c   82c2     BSF       0xc2,0x1,0x0       ADCON0bits.GO = 1;              // Start AD conversion                       C:\3DAQ\firmware\user\user.c
000a7e   b2c2     BTFSC     0xc2,0x1,0x0       while(ADCON0bits.NOT_DONE);     // Wait for conversion                       C:\3DAQ\firmware\user\user.c
000a80   d7fe     BRA       0xa7e                                                                                           
000a82   50c3     MOVF      0xc3,0x0,0x0   	low = ADRESL;                                                                   C:\3DAQ\firmware\user\user.c
000a84   6edf     MOVWF     0xdf,0x0                                                                                        
000a86   0e01     MOVLW     0x1            	high = ADRESH;                                                                  C:\3DAQ\firmware\user\user.c
000a88   cfc4     MOVFF     0xfc4,0xfdb                                                                                     
000a8a   ffdb                                                                                                               
000a8c   90d8     BCF       0xd8,0x0,0x0   	low >>= 2;                                                                      C:\3DAQ\firmware\user\user.c
000a8e   32df     RRCF      0xdf,0x1,0x0                                                                                    
000a90   90d8     BCF       0xd8,0x0,0x0                                                                                    
000a92   32df     RRCF      0xdf,0x1,0x0                                                                                    
000a94   cfdb     MOVFF     0xfdb,0xff3    	high <<= 6;                                                                     C:\3DAQ\firmware\user\user.c
000a96   fff3                                                                                                               
000a98   40f3     RRNCF     0xf3,0x0,0x0                                                                                    
000a9a   42e8     RRNCF     0xe8,0x1,0x0                                                                                    
000a9c   0bc0     ANDLW     0xc0                                                                                            
000a9e   6ef3     MOVWF     0xf3,0x0                                                                                        
000aa0   0e01     MOVLW     0x1                                                                                             
000aa2   cff3     MOVFF     0xff3,0xfdb                                                                                     
000aa4   ffdb                                                                                                               
000aa6   50db     MOVF      0xdb,0x0,0x0       return (low | high);                                                         C:\3DAQ\firmware\user\user.c
000aa8   10df     IORWF     0xdf,0x0,0x0                                                                                    
000aaa   6e14     MOVWF     0x14,0x0       }//end ReadPOT                                                                   C:\3DAQ\firmware\user\user.c
000aac   0e02     MOVLW     0x2                                                                                             
000aae   5ce1     SUBWF     0xe1,0x0,0x0                                                                                    
000ab0   e203     BC        0xab8                                                                                           
000ab2   d000     BRA       0xab4                                                                                           
000ab4   6ae1     CLRF      0xe1,0x0                                                                                        
000ab6   52e5     MOVF      0xe5,0x1,0x0                                                                                    
000ab8   6ee1     MOVWF     0xe1,0x0                                                                                        
000aba   5014     MOVF      0x14,0x0,0x0                                                                                    
000abc   52e5     MOVF      0xe5,0x1,0x0                                                                                    
000abe   cfe7     MOVFF     0xfe7,0xfd9                                                                                     
000ac0   ffd9                                                                                                               
000ac2   0012     RETURN    0x0                                                                                             
                                                                                                                            C:\3DAQ\firmware\user\user.c
                                           void CheckButtons(void)                                                          C:\3DAQ\firmware\user\user.c
                                           {                                                                                C:\3DAQ\firmware\user\user.c
000ac4   d000     BRA       0xac6          	return;                                                                         C:\3DAQ\firmware\user\user.c
000ac6   0012     RETURN    0x0            }//end CheckButtons                                                              C:\3DAQ\firmware\user\user.c
                                           //end mod by Tim                                                                 C:\3DAQ\firmware\user\user.c
                                                                                                                            C:\3DAQ\firmware\user\user.c
000ac8   cfd9     MOVFF     0xfd9,0xfe6    void CallDelay(int delay)                                                        C:\3DAQ\firmware\user\user.c
000aca   ffe6                                                                                                               
000acc   cfe1     MOVFF     0xfe1,0xfd9                                                                                     
000ace   ffd9                                                                                                               
000ad0   0e02     MOVLW     0x2                                                                                             
000ad2   26e1     ADDWF     0xe1,0x1,0x0                                                                                    
                                           //Delay of 1 gives 6-8us                                                         C:\3DAQ\firmware\user\user.c
                                           {                                                                                C:\3DAQ\firmware\user\user.c
                                           	int i;                                                                          C:\3DAQ\firmware\user\user.c
000ad4   6ade     CLRF      0xde,0x0       	for(i=0;i<delay;i++)                                                            C:\3DAQ\firmware\user\user.c
000ad6   6add     CLRF      0xdd,0x0                                                                                        
000ad8   cfde     MOVFF     0xfde,0x14                                                                                      
000ada   f014                                                                                                               
000adc   cfdd     MOVFF     0xfdd,0x15                                                                                      
000ade   f015                                                                                                               
000ae0   0efd     MOVLW     0xfd                                                                                            
000ae2   cfdb     MOVFF     0xfdb,0x16                                                                                      
000ae4   f016                                                                                                               
000ae6   0efe     MOVLW     0xfe                                                                                            
000ae8   cfdb     MOVFF     0xfdb,0x17                                                                                      
000aea   f017                                                                                                               
000aec   5015     MOVF      0x15,0x0,0x0                                                                                    
000aee   1817     XORWF     0x17,0x0,0x0                                                                                    
000af0   aee8     BTFSS     0xe8,0x7,0x0                                                                                    
000af2   d002     BRA       0xaf8                                                                                           
000af4   3417     RLCF      0x17,0x0,0x0                                                                                    
000af6   d004     BRA       0xb00                                                                                           
000af8   5016     MOVF      0x16,0x0,0x0                                                                                    
000afa   5c14     SUBWF     0x14,0x0,0x0                                                                                    
000afc   5017     MOVF      0x17,0x0,0x0                                                                                    
000afe   5815     SUBWFB    0x15,0x0,0x0                                                                                    
000b00   e205     BC        0xb0c                                                                                           
000b02   2adf     INCF      0xdf,0x1,0x0                                                                                    
000b04   0e01     MOVLW     0x1                                                                                             
000b06   e301     BNC       0xb0a                                                                                           
000b08   2adb     INCF      0xdb,0x1,0x0                                                                                    
000b0a   d7e6     BRA       0xad8                                                                                           
                                           	{                                                                               C:\3DAQ\firmware\user\user.c
                                           	}                                                                               C:\3DAQ\firmware\user\user.c
                                           	return;                                                                         C:\3DAQ\firmware\user\user.c
000b0c   0e02     MOVLW     0x2            }//end CallDelay                                                                 C:\3DAQ\firmware\user\user.c
000b0e   5ce1     SUBWF     0xe1,0x0,0x0                                                                                    
000b10   e203     BC        0xb18                                                                                           
000b12   d000     BRA       0xb14                                                                                           
000b14   6ae1     CLRF      0xe1,0x0                                                                                        
000b16   52e5     MOVF      0xe5,0x1,0x0                                                                                    
000b18   6ee1     MOVWF     0xe1,0x0                                                                                        
000b1a   52e5     MOVF      0xe5,0x1,0x0                                                                                    
000b1c   cfe7     MOVFF     0xfe7,0xfd9                                                                                     
000b1e   ffd9                                                                                                               
000b20   0012     RETURN    0x0                                                                                             
                                                                                                                            C:\3DAQ\firmware\user\user.c
000b22   cfd9     MOVFF     0xfd9,0xfe6    void ThermWrite(int command)                                                     C:\3DAQ\firmware\user\user.c
000b24   ffe6                                                                                                               
000b26   cfe1     MOVFF     0xfe1,0xfd9                                                                                     
000b28   ffd9                                                                                                               
000b2a   0e02     MOVLW     0x2                                                                                             
000b2c   26e1     ADDWF     0xe1,0x1,0x0                                                                                    
                                           {                                                                                C:\3DAQ\firmware\user\user.c
                                           	int i;                                                                          C:\3DAQ\firmware\user\user.c
                                           	//Set RD7 as OUTPUT                                                             C:\3DAQ\firmware\user\user.c
                                           	                                                                                C:\3DAQ\firmware\user\user.c
000b2e   6ade     CLRF      0xde,0x0       	for (i=0;i<=15;i++)                                                             C:\3DAQ\firmware\user\user.c
000b30   6add     CLRF      0xdd,0x0                                                                                        
000b32   cfde     MOVFF     0xfde,0x14                                                                                      
000b34   f014                                                                                                               
000b36   cfdd     MOVFF     0xfdd,0x15                                                                                      
000b38   f015                                                                                                               
000b3a   3415     RLCF      0x15,0x0,0x0                                                                                    
000b3c   e204     BC        0xb46                                                                                           
000b3e   5014     MOVF      0x14,0x0,0x0                                                                                    
000b40   080f     SUBLW     0xf                                                                                             
000b42   0e00     MOVLW     0x0                                                                                             
000b44   5415     SUBFWB    0x15,0x0,0x0                                                                                    
000b46   e332     BNC       0xbac                                                                                           
000ba2   2adf     INCF      0xdf,0x1,0x0                                                                                    
000ba4   0e01     MOVLW     0x1                                                                                             
000ba6   e301     BNC       0xbaa                                                                                           
000ba8   2adb     INCF      0xdb,0x1,0x0                                                                                    
000baa   d7c3     BRA       0xb32                                                                                           
                                           	{                                                                               C:\3DAQ\firmware\user\user.c
000b48   0efd     MOVLW     0xfd           		if (command & 1)                                                               C:\3DAQ\firmware\user\user.c
000b4a   50db     MOVF      0xdb,0x0,0x0                                                                                    
000b4c   0b01     ANDLW     0x1                                                                                             
000b4e   e011     BZ        0xb72                                                                                           
                                           		{                                                                              C:\3DAQ\firmware\user\user.c
000b50   0e18     MOVLW     0x18           			TRISD = 0x18;                                                                 C:\3DAQ\firmware\user\user.c
000b52   6e95     MOVWF     0x95,0x0                                                                                        
000b54   9c8c     BCF       0x8c,0x6,0x0   			LATDbits.LATD6 = 0;                                                           C:\3DAQ\firmware\user\user.c
000b56   0e01     MOVLW     0x1            			CallDelay(1);                                                                 C:\3DAQ\firmware\user\user.c
000b58   6ee6     MOVWF     0xe6,0x0                                                                                        
000b5a   6ae6     CLRF      0xe6,0x0                                                                                        
000b5c   dfb5     RCALL     0xac8                                                                                           
000b5e   52e5     MOVF      0xe5,0x1,0x0                                                                                    
000b60   52e5     MOVF      0xe5,0x1,0x0                                                                                    
000b62   8c8c     BSF       0x8c,0x6,0x0   			LATDbits.LATD6 = 1;                                                           C:\3DAQ\firmware\user\user.c
                                           			//TRISD = 0xD8;                                                               C:\3DAQ\firmware\user\user.c
000b64   0e0a     MOVLW     0xa            			CallDelay(10);                                                                C:\3DAQ\firmware\user\user.c
000b66   6ee6     MOVWF     0xe6,0x0                                                                                        
000b68   6ae6     CLRF      0xe6,0x0                                                                                        
000b6a   dfae     RCALL     0xac8                                                                                           
000b6c   52e5     MOVF      0xe5,0x1,0x0                                                                                    
000b6e   52e5     MOVF      0xe5,0x1,0x0                                                                                    
                                           		}                                                                              C:\3DAQ\firmware\user\user.c
000b70   d009     BRA       0xb84          		else                                                                           C:\3DAQ\firmware\user\user.c
                                           		{                                                                              C:\3DAQ\firmware\user\user.c
000b72   0e18     MOVLW     0x18           			TRISD = 0x18;                                                                 C:\3DAQ\firmware\user\user.c
000b74   6e95     MOVWF     0x95,0x0                                                                                        
000b76   9c8c     BCF       0x8c,0x6,0x0   			LATDbits.LATD6 = 0;                                                           C:\3DAQ\firmware\user\user.c
000b78   0e0b     MOVLW     0xb            			CallDelay(11);                                                                C:\3DAQ\firmware\user\user.c
000b7a   6ee6     MOVWF     0xe6,0x0                                                                                        
000b7c   6ae6     CLRF      0xe6,0x0                                                                                        
000b7e   dfa4     RCALL     0xac8                                                                                           
000b80   52e5     MOVF      0xe5,0x1,0x0                                                                                    
000b82   52e5     MOVF      0xe5,0x1,0x0                                                                                    
                                           			//CodeSectionAccessed(0x4);                                                   C:\3DAQ\firmware\user\user.c
                                           		}                                                                              C:\3DAQ\firmware\user\user.c
000b84   50d9     MOVF      0xd9,0x0,0x0   		command >>=1;                                                                  C:\3DAQ\firmware\user\user.c
000b86   0ffd     ADDLW     0xfd                                                                                            
000b88   6ee9     MOVWF     0xe9,0x0                                                                                        
000b8a   0eff     MOVLW     0xff                                                                                            
000b8c   20da     ADDWFC    0xda,0x0,0x0                                                                                    
000b8e   6eea     MOVWF     0xea,0x0                                                                                        
000b90   0e01     MOVLW     0x1                                                                                             
000b92   0b0f     ANDLW     0xf                                                                                             
000b94   e006     BZ        0xba2                                                                                           
000b96   52ec     MOVF      0xec,0x1,0x0                                                                                    
000b98   90d8     BCF       0xd8,0x0,0x0                                                                                    
000b9a   32ed     RRCF      0xed,0x1,0x0                                                                                    
000b9c   32ef     RRCF      0xef,0x1,0x0                                                                                    
000b9e   06e8     DECF      0xe8,0x1,0x0                                                                                    
000ba0   e1fa     BNZ       0xb96                                                                                           
                                           	}                                                                               C:\3DAQ\firmware\user\user.c
                                           	return;                                                                         C:\3DAQ\firmware\user\user.c
000bac   0e02     MOVLW     0x2            }                                                                                C:\3DAQ\firmware\user\user.c
000bae   5ce1     SUBWF     0xe1,0x0,0x0                                                                                    
000bb0   e203     BC        0xbb8                                                                                           
000bb2   d000     BRA       0xbb4                                                                                           
000bb4   6ae1     CLRF      0xe1,0x0                                                                                        
000bb6   52e5     MOVF      0xe5,0x1,0x0                                                                                    
000bb8   6ee1     MOVWF     0xe1,0x0                                                                                        
000bba   52e5     MOVF      0xe5,0x1,0x0                                                                                    
000bbc   cfe7     MOVFF     0xfe7,0xfd9                                                                                     
000bbe   ffd9                                                                                                               
000bc0   0012     RETURN    0x0                                                                                             
                                                                                                                            C:\3DAQ\firmware\user\user.c
000bc2   cfd9     MOVFF     0xfd9,0xfe6    int ThermReadTemp(void)                                                          C:\3DAQ\firmware\user\user.c
000bc4   ffe6                                                                                                               
000bc6   cfe1     MOVFF     0xfe1,0xfd9                                                                                     
000bc8   ffd9                                                                                                               
000bca   0e12     MOVLW     0x12                                                                                            
000bcc   26e1     ADDWF     0xe1,0x1,0x0                                                                                    
                                           {                                                                                C:\3DAQ\firmware\user\user.c
                                           	int i;                                                                          C:\3DAQ\firmware\user\user.c
                                           	int finalTemp;                                                                  C:\3DAQ\firmware\user\user.c
                                           	int temp[7];                                                                    C:\3DAQ\firmware\user\user.c
000bce   6ade     CLRF      0xde,0x0       	for (i=0;i<=7;i++)                                                              C:\3DAQ\firmware\user\user.c
000bd0   6add     CLRF      0xdd,0x0                                                                                        
000bd2   cfde     MOVFF     0xfde,0x14                                                                                      
000bd4   f014                                                                                                               
000bd6   cfdd     MOVFF     0xfdd,0x15                                                                                      
000bd8   f015                                                                                                               
000bda   3415     RLCF      0x15,0x0,0x0                                                                                    
000bdc   e204     BC        0xbe6                                                                                           
000bde   5014     MOVF      0x14,0x0,0x0                                                                                    
000be0   0807     SUBLW     0x7                                                                                             
000be2   0e00     MOVLW     0x0                                                                                             
000be4   5415     SUBFWB    0x15,0x0,0x0                                                                                    
000be6   e35a     BNC       0xc9c                                                                                           
000c92   2adf     INCF      0xdf,0x1,0x0                                                                                    
000c94   0e01     MOVLW     0x1                                                                                             
000c96   e301     BNC       0xc9a                                                                                           
000c98   2adb     INCF      0xdb,0x1,0x0                                                                                    
000c9a   d79b     BRA       0xbd2                                                                                           
                                           	{                                                                               C:\3DAQ\firmware\user\user.c
000be8   0e18     MOVLW     0x18           		TRISD = 0x18;                                                                  C:\3DAQ\firmware\user\user.c
000bea   6e95     MOVWF     0x95,0x0                                                                                        
000bec   9e8c     BCF       0x8c,0x7,0x0   		LATDbits.LATD7 = 0;                                                            C:\3DAQ\firmware\user\user.c
000bee   0e98     MOVLW     0x98           		TRISD = 0x98;                                                                  C:\3DAQ\firmware\user\user.c
000bf0   6e95     MOVWF     0x95,0x0                                                                                        
000bf2   5083     MOVF      0x83,0x0,0x0   		temp[i] = temp_sense;                                                          C:\3DAQ\firmware\user\user.c
000bf4   0b80     ANDLW     0x80                                                                                            
000bf6   e001     BZ        0xbfa                                                                                           
000bf8   0e01     MOVLW     0x1                                                                                             
000bfa   6ee6     MOVWF     0xe6,0x0                                                                                        
000bfc   50d9     MOVF      0xd9,0x0,0x0                                                                                    
000bfe   0f04     ADDLW     0x4                                                                                             
000c00   6e14     MOVWF     0x14,0x0                                                                                        
000c02   cfda     MOVFF     0xfda,0x15                                                                                      
000c04   f015                                                                                                               
000c06   0e02     MOVLW     0x2                                                                                             
000c08   6e08     MOVWF     0x8,0x0                                                                                         
000c0a   6a09     CLRF      0x9,0x0                                                                                         
000c0c   cfde     MOVFF     0xfde,0xd                                                                                       
000c0e   f00d                                                                                                               
000c10   cfdd     MOVFF     0xfdd,0xe                                                                                       
000c12   f00e                                                                                                               
000c14   ecad     CALL      0x175a,0x0                                                                                      
000c16   f00b                                                                                                               
000c18   5014     MOVF      0x14,0x0,0x0                                                                                    
000c1a   2406     ADDWF     0x6,0x0,0x0                                                                                     
000c1c   6ee9     MOVWF     0xe9,0x0                                                                                        
000c1e   5015     MOVF      0x15,0x0,0x0                                                                                    
000c20   2007     ADDWFC    0x7,0x0,0x0                                                                                     
000c22   6eea     MOVWF     0xea,0x0                                                                                        
000c24   52e5     MOVF      0xe5,0x1,0x0                                                                                    
000c26   50e7     MOVF      0xe7,0x0,0x0                                                                                    
000c28   6eee     MOVWF     0xee,0x0                                                                                        
000c2a   6aed     CLRF      0xed,0x0                                                                                        
000c2c   0e08     MOVLW     0x8            		CallDelay(8);                                                                  C:\3DAQ\firmware\user\user.c
000c2e   6ee6     MOVWF     0xe6,0x0                                                                                        
000c30   6ae6     CLRF      0xe6,0x0                                                                                        
000c32   df4a     RCALL     0xac8                                                                                           
000c34   52e5     MOVF      0xe5,0x1,0x0                                                                                    
000c36   52e5     MOVF      0xe5,0x1,0x0                                                                                    
000c38   50d9     MOVF      0xd9,0x0,0x0   		if (temp[i]){                                                                  C:\3DAQ\firmware\user\user.c
000c3a   0f04     ADDLW     0x4                                                                                             
000c3c   6e14     MOVWF     0x14,0x0                                                                                        
000c3e   cfda     MOVFF     0xfda,0x15                                                                                      
000c40   f015                                                                                                               
000c42   0e02     MOVLW     0x2                                                                                             
000c44   6e08     MOVWF     0x8,0x0                                                                                         
000c46   6a09     CLRF      0x9,0x0                                                                                         
000c48   cfde     MOVFF     0xfde,0xd                                                                                       
000c4a   f00d                                                                                                               
000c4c   cfdd     MOVFF     0xfdd,0xe                                                                                       
000c4e   f00e                                                                                                               
000c50   ecad     CALL      0x175a,0x0                                                                                      
000c52   f00b                                                                                                               
000c54   5014     MOVF      0x14,0x0,0x0                                                                                    
000c56   2406     ADDWF     0x6,0x0,0x0                                                                                     
000c58   6ee9     MOVWF     0xe9,0x0                                                                                        
000c5a   5015     MOVF      0x15,0x0,0x0                                                                                    
000c5c   2007     ADDWFC    0x7,0x0,0x0                                                                                     
000c5e   6eea     MOVWF     0xea,0x0                                                                                        
000c60   50ee     MOVF      0xee,0x0,0x0                                                                                    
000c62   10ed     IORWF     0xed,0x0,0x0                                                                                    
000c64   e016     BZ        0xc92                                                                                           
000c66   0e01     MOVLW     0x1            			finalTemp += 1 << i;                                                          C:\3DAQ\firmware\user\user.c
000c68   52df     MOVF      0xdf,0x1,0x0                                                                                    
000c6a   e006     BZ        0xc78                                                                                           
000c6c   cfdf     MOVFF     0xfdf,0xff3                                                                                     
000c6e   fff3                                                                                                               
000c70   46e8     RLNCF     0xe8,0x1,0x0                                                                                    
000c72   0bfe     ANDLW     0xfe                                                                                            
000c74   06f3     DECF      0xf3,0x1,0x0                                                                                    
000c76   e1fc     BNZ       0xc70                                                                                           
000c78   6e14     MOVWF     0x14,0x0                                                                                        
000c7a   6a15     CLRF      0x15,0x0                                                                                        
000c7c   be14     BTFSC     0x14,0x7,0x0                                                                                    
000c7e   6815     SETF      0x15,0x0                                                                                        
000c80   50d9     MOVF      0xd9,0x0,0x0                                                                                    
000c82   0f02     ADDLW     0x2                                                                                             
000c84   6ee9     MOVWF     0xe9,0x0                                                                                        
000c86   cfda     MOVFF     0xfda,0xfea                                                                                     
000c88   ffea                                                                                                               
000c8a   5014     MOVF      0x14,0x0,0x0                                                                                    
000c8c   26ee     ADDWF     0xee,0x1,0x0                                                                                    
000c8e   5015     MOVF      0x15,0x0,0x0                                                                                    
000c90   22ed     ADDWFC    0xed,0x1,0x0                                                                                    
                                           		}                                                                              C:\3DAQ\firmware\user\user.c
                                           	}                                                                               C:\3DAQ\firmware\user\user.c
                                           	//CodeSectionAccessed(0x4);                                                     C:\3DAQ\firmware\user\user.c
000c9c   0e02     MOVLW     0x2            	return finalTemp;                                                               C:\3DAQ\firmware\user\user.c
000c9e   cfdb     MOVFF     0xfdb,0x14                                                                                      
000ca0   f014                                                                                                               
000ca2   0e03     MOVLW     0x3                                                                                             
000ca4   cfdb     MOVFF     0xfdb,0x15                                                                                      
000ca6   f015                                                                                                               
000ca8   c014     MOVFF     0x14,0xff3                                                                                      
000caa   fff3                                                                                                               
000cac   c015     MOVFF     0x15,0xff4                                                                                      
000cae   fff4                                                                                                               
000cb0   0e12     MOVLW     0x12           }                                                                                C:\3DAQ\firmware\user\user.c
000cb2   5ce1     SUBWF     0xe1,0x0,0x0                                                                                    
000cb4   e203     BC        0xcbc                                                                                           
000cb6   d000     BRA       0xcb8                                                                                           
000cb8   6ae1     CLRF      0xe1,0x0                                                                                        
000cba   52e5     MOVF      0xe5,0x1,0x0                                                                                    
000cbc   6ee1     MOVWF     0xe1,0x0                                                                                        
000cbe   52e5     MOVF      0xe5,0x1,0x0                                                                                    
000cc0   cfe7     MOVFF     0xfe7,0xfd9                                                                                     
000cc2   ffd9                                                                                                               
000cc4   0012     RETURN    0x0                                                                                             
                                                                                                                            C:\3DAQ\firmware\user\user.c
                                           void ThermSendReset(void)                                                        C:\3DAQ\firmware\user\user.c
                                           {                                                                                C:\3DAQ\firmware\user\user.c
000cc6   0e18     MOVLW     0x18           	TRISD = 0x18; //Set all but RD3, RD4 as output                                  C:\3DAQ\firmware\user\user.c
000cc8   6e95     MOVWF     0x95,0x0                                                                                        
000cca   9e8c     BCF       0x8c,0x7,0x0   	LATDbits.LATD7 = 0;  //Pull Data line low                                       C:\3DAQ\firmware\user\user.c
000ccc   0e53     MOVLW     0x53           	CallDelay(83);//CallDelay gives 6-8us delay per unit, min. 480us required       C:\3DAQ\firmware\user\user.c
000cce   6ee6     MOVWF     0xe6,0x0                                                                                        
000cd0   6ae6     CLRF      0xe6,0x0                                                                                        
000cd2   defa     RCALL     0xac8                                                                                           
000cd4   52e5     MOVF      0xe5,0x1,0x0                                                                                    
000cd6   52e5     MOVF      0xe5,0x1,0x0                                                                                    
                                           	//After 30us, thermometer returns 112us (60-240us) presence pulse (line low)    C:\3DAQ\firmware\user\user.c
000cd8   0e98     MOVLW     0x98           	TRISD = 0x98;	//Set RD7 as INPUT                                                C:\3DAQ\firmware\user\user.c
000cda   6e95     MOVWF     0x95,0x0                                                                                        
000cdc   0e02     MOVLW     0x2            	CallDelay(2);                                                                   C:\3DAQ\firmware\user\user.c
000cde   6ee6     MOVWF     0xe6,0x0                                                                                        
000ce0   6ae6     CLRF      0xe6,0x0                                                                                        
000ce2   def2     RCALL     0xac8                                                                                           
000ce4   52e5     MOVF      0xe5,0x1,0x0                                                                                    
000ce6   52e5     MOVF      0xe5,0x1,0x0                                                                                    
000ce8   d000     BRA       0xcea          	return;                                                                         C:\3DAQ\firmware\user\user.c
000cea   0012     RETURN    0x0            }//end ThermSendReset                                                            C:\3DAQ\firmware\user\user.c
                                                                                                                            C:\3DAQ\firmware\user\user.c
000cec   cfd9     MOVFF     0xfd9,0xfe6    int ReadTemp(void)                                                               C:\3DAQ\firmware\user\user.c
000cee   ffe6                                                                                                               
000cf0   cfe1     MOVFF     0xfe1,0xfd9                                                                                     
000cf2   ffd9                                                                                                               
000cf4   0e02     MOVLW     0x2                                                                                             
000cf6   26e1     ADDWF     0xe1,0x1,0x0                                                                                    
                                           {                                                                                C:\3DAQ\firmware\user\user.c
                                           	int deg;                                                                        C:\3DAQ\firmware\user\user.c
000cf8   dfe6     RCALL     0xcc6          	ThermSendReset();                                                               C:\3DAQ\firmware\user\user.c
000cfa   0eaa     MOVLW     0xaa           	ThermWrite(0xAA);//Request temp command                                         C:\3DAQ\firmware\user\user.c
000cfc   6ee6     MOVWF     0xe6,0x0                                                                                        
000cfe   6ae6     CLRF      0xe6,0x0                                                                                        
000d00   df10     RCALL     0xb22                                                                                           
000d02   52e5     MOVF      0xe5,0x1,0x0                                                                                    
000d04   52e5     MOVF      0xe5,0x1,0x0                                                                                    
                                           	//ThermWrite(0xF);//Request temp command                                        C:\3DAQ\firmware\user\user.c
000d06   df5d     RCALL     0xbc2          	deg = ThermReadTemp();                                                          C:\3DAQ\firmware\user\user.c
000d08   cff3     MOVFF     0xff3,0xfde                                                                                     
000d0a   ffde                                                                                                               
000d0c   cff4     MOVFF     0xff4,0xfdd                                                                                     
000d0e   ffdd                                                                                                               
000d10   cfde     MOVFF     0xfde,0x14     	return deg;                                                                     C:\3DAQ\firmware\user\user.c
000d12   f014                                                                                                               
000d14   cfdd     MOVFF     0xfdd,0x15                                                                                      
000d16   f015                                                                                                               
000d18   c014     MOVFF     0x14,0xff3                                                                                      
000d1a   fff3                                                                                                               
000d1c   c015     MOVFF     0x15,0xff4                                                                                      
000d1e   fff4                                                                                                               
000d20   0e02     MOVLW     0x2            }//end ReadTemp                                                                  C:\3DAQ\firmware\user\user.c
000d22   5ce1     SUBWF     0xe1,0x0,0x0                                                                                    
000d24   e203     BC        0xd2c                                                                                           
000d26   d000     BRA       0xd28                                                                                           
000d28   6ae1     CLRF      0xe1,0x0                                                                                        
000d2a   52e5     MOVF      0xe5,0x1,0x0                                                                                    
000d2c   6ee1     MOVWF     0xe1,0x0                                                                                        
000d2e   52e5     MOVF      0xe5,0x1,0x0                                                                                    
000d30   cfe7     MOVFF     0xfe7,0xfd9                                                                                     
000d32   ffd9                                                                                                               
000d34   0012     RETURN    0x0                                                                                             
                                                                                                                            C:\3DAQ\firmware\user\user.c
000d36   cfd9     MOVFF     0xfd9,0xfe6    void UserTasks(void)                                                             C:\3DAQ\firmware\user\user.c
000d38   ffe6                                                                                                               
000d3a   cfe1     MOVFF     0xfe1,0xfd9                                                                                     
000d3c   ffd9                                                                                                               
000d3e   0e04     MOVLW     0x4                                                                                             
000d40   26e1     ADDWF     0xe1,0x1,0x0                                                                                    
                                           {                                                                                C:\3DAQ\firmware\user\user.c
                                           	int i;                                                                          C:\3DAQ\firmware\user\user.c
000d42   0e01     MOVLW     0x1            	int ThermometerCount = 1;                                                       C:\3DAQ\firmware\user\user.c
000d44   6ef3     MOVWF     0xf3,0x0                                                                                        
000d46   0e02     MOVLW     0x2                                                                                             
000d48   cff3     MOVFF     0xff3,0xfdb                                                                                     
000d4a   ffdb                                                                                                               
000d4c   0e03     MOVLW     0x3                                                                                             
000d4e   6adb     CLRF      0xdb,0x0                                                                                        
000d50   0e01     MOVLW     0x1            	for (i = 1; i <= ThermometerCount; i++)                                         C:\3DAQ\firmware\user\user.c
000d52   6ede     MOVWF     0xde,0x0                                                                                        
000d54   6add     CLRF      0xdd,0x0                                                                                        
000d56   cfde     MOVFF     0xfde,0x14                                                                                      
000d58   f014                                                                                                               
000d5a   cfdd     MOVFF     0xfdd,0x15                                                                                      
000d5c   f015                                                                                                               
000d5e   0e02     MOVLW     0x2                                                                                             
000d60   cfdb     MOVFF     0xfdb,0x16                                                                                      
000d62   f016                                                                                                               
000d64   0e03     MOVLW     0x3                                                                                             
000d66   cfdb     MOVFF     0xfdb,0x17                                                                                      
000d68   f017                                                                                                               
000d6a   5017     MOVF      0x17,0x0,0x0                                                                                    
000d6c   1815     XORWF     0x15,0x0,0x0                                                                                    
000d6e   aee8     BTFSS     0xe8,0x7,0x0                                                                                    
000d70   d002     BRA       0xd76                                                                                           
000d72   3415     RLCF      0x15,0x0,0x0                                                                                    
000d74   d004     BRA       0xd7e                                                                                           
000d76   5014     MOVF      0x14,0x0,0x0                                                                                    
000d78   5c16     SUBWF     0x16,0x0,0x0                                                                                    
000d7a   5015     MOVF      0x15,0x0,0x0                                                                                    
000d7c   5817     SUBWFB    0x17,0x0,0x0                                                                                    
000d7e   e306     BNC       0xd8c                                                                                           
000d82   2adf     INCF      0xdf,0x1,0x0                                                                                    
000d84   0e01     MOVLW     0x1                                                                                             
000d86   e301     BNC       0xd8a                                                                                           
000d88   2adb     INCF      0xdb,0x1,0x0                                                                                    
000d8a   d7e5     BRA       0xd56                                                                                           
                                           	{                                                                               C:\3DAQ\firmware\user\user.c
000d80   dfb5     RCALL     0xcec          		ReadTemp();                                                                    C:\3DAQ\firmware\user\user.c
                                           	}                                                                               C:\3DAQ\firmware\user\user.c
000d8c   de9b     RCALL     0xac4          	CheckButtons();                                                                 C:\3DAQ\firmware\user\user.c
                                           	return;                                                                         C:\3DAQ\firmware\user\user.c
000d8e   0e04     MOVLW     0x4            }//end UserTasks                                                                 C:\3DAQ\firmware\user\user.c
000d90   5ce1     SUBWF     0xe1,0x0,0x0                                                                                    
000d92   e203     BC        0xd9a                                                                                           
000d94   d000     BRA       0xd96                                                                                           
000d96   6ae1     CLRF      0xe1,0x0                                                                                        
000d98   52e5     MOVF      0xe5,0x1,0x0                                                                                    
000d9a   6ee1     MOVWF     0xe1,0x0                                                                                        
000d9c   52e5     MOVF      0xe5,0x1,0x0                                                                                    
000d9e   cfe7     MOVFF     0xfe7,0xfd9                                                                                     
000da0   ffd9                                                                                                               
000da2   0012     RETURN    0x0                                                                                             
                                                                                                                            C:\3DAQ\firmware\user\user.c
                                           void UserInit(void)                                                              C:\3DAQ\firmware\user\user.c
                                           {                                                                                C:\3DAQ\firmware\user\user.c
000da4   0ef0     MOVLW     0xf0               mInitAllLEDs();                                                              C:\3DAQ\firmware\user\user.c
000da6   168c     ANDWF     0x8c,0x1,0x0                                                                                    
000da8   1695     ANDWF     0x95,0x1,0x0                                                                                    
000daa   8092     BSF       0x92,0x0,0x0   	TRISAbits.TRISA0=1;                                                             C:\3DAQ\firmware\user\user.c
000dac   0e01     MOVLW     0x1            	ADCON0=0x01;                                                                    C:\3DAQ\firmware\user\user.c
000dae   6ec2     MOVWF     0xc2,0x0                                                                                        
000db0   0e3c     MOVLW     0x3c           	ADCON2=0x3C;                                                                    C:\3DAQ\firmware\user\user.c
000db2   6ec0     MOVWF     0xc0,0x0                                                                                        
000db4   8ec0     BSF       0xc0,0x7,0x0       ADCON2bits.ADFM = 1;   // ADC result right justified                         C:\3DAQ\firmware\user\user.c
000db6   0e18     MOVLW     0x18           	TRISD = 0x18;                                                                   C:\3DAQ\firmware\user\user.c
000db8   6e95     MOVWF     0x95,0x0                                                                                        
000dba   ef63     GOTO      0xcc6          	ThermSendReset();                                                               C:\3DAQ\firmware\user\user.c
000dbc   f006                                                                                                               
                                           }//end UserInit                                                                  C:\3DAQ\firmware\user\user.c
                                                                                                                            C:\3DAQ\firmware\user\user.c
                                                                                                                            C:\3DAQ\firmware\user\user.c
                                           /** EOF user.c ***************************************************************/  C:\3DAQ\firmware\user\user.c
                                           /** I N C L U D E S **********************************************************/  C:\3DAQ\firmware\system\usb\class\generic\usbgen.c
                                           #include <p18cxxx.h>                                                             C:\3DAQ\firmware\system\usb\class\generic\usbgen.c
                                           #include "system\typedefs.h"                                                     C:\3DAQ\firmware\system\usb\class\generic\usbgen.c
                                           #include "system\usb\usb.h"                                                      C:\3DAQ\firmware\system\usb\class\generic\usbgen.c
                                                                                                                            C:\3DAQ\firmware\system\usb\class\generic\usbgen.c
                                           #ifdef USB_USE_GEN                                                               C:\3DAQ\firmware\system\usb\class\generic\usbgen.c
                                                                                                                            C:\3DAQ\firmware\system\usb\class\generic\usbgen.c
                                           /** V A R I A B L E S ********************************************************/  C:\3DAQ\firmware\system\usb\class\generic\usbgen.c
                                           #pragma udata                                                                    C:\3DAQ\firmware\system\usb\class\generic\usbgen.c
                                           byte usbgen_rx_len;                                                              C:\3DAQ\firmware\system\usb\class\generic\usbgen.c
                                                                                                                            C:\3DAQ\firmware\system\usb\class\generic\usbgen.c
                                           /** P R I V A T E  P R O T O T Y P E S ***************************************/  C:\3DAQ\firmware\system\usb\class\generic\usbgen.c
                                                                                                                            C:\3DAQ\firmware\system\usb\class\generic\usbgen.c
                                           /** D E C L A R A T I O N S **************************************************/  C:\3DAQ\firmware\system\usb\class\generic\usbgen.c
                                           #pragma code                                                                     C:\3DAQ\firmware\system\usb\class\generic\usbgen.c
                                                                                                                            C:\3DAQ\firmware\system\usb\class\generic\usbgen.c
                                           /** U S E R  A P I ***********************************************************/  C:\3DAQ\firmware\system\usb\class\generic\usbgen.c
                                                                                                                            C:\3DAQ\firmware\system\usb\class\generic\usbgen.c
                                           /******************************************************************************  C:\3DAQ\firmware\system\usb\class\generic\usbgen.c
                                            * Function:        void USBGenInitEP(void)                                      C:\3DAQ\firmware\system\usb\class\generic\usbgen.c
                                            *                                                                               C:\3DAQ\firmware\system\usb\class\generic\usbgen.c
                                            * PreCondition:    None                                                         C:\3DAQ\firmware\system\usb\class\generic\usbgen.c
                                            *                                                                               C:\3DAQ\firmware\system\usb\class\generic\usbgen.c
                                            * Input:           None                                                         C:\3DAQ\firmware\system\usb\class\generic\usbgen.c
                                            *                                                                               C:\3DAQ\firmware\system\usb\class\generic\usbgen.c
                                            * Output:          None                                                         C:\3DAQ\firmware\system\usb\class\generic\usbgen.c
                                            *                                                                               C:\3DAQ\firmware\system\usb\class\generic\usbgen.c
                                            * Side Effects:    None                                                         C:\3DAQ\firmware\system\usb\class\generic\usbgen.c
                                            *                                                                               C:\3DAQ\firmware\system\usb\class\generic\usbgen.c
                                            * Overview:        USBGenInitEP initializes generic endpoints, buffer           C:\3DAQ\firmware\system\usb\class\generic\usbgen.c
                                            *                  descriptors, internal state-machine, and variables.          C:\3DAQ\firmware\system\usb\class\generic\usbgen.c
                                            *                  It should be called after the USB host has sent out a        C:\3DAQ\firmware\system\usb\class\generic\usbgen.c
                                            *                  SET_CONFIGURATION request.                                   C:\3DAQ\firmware\system\usb\class\generic\usbgen.c
                                            *                  See USBStdSetCfgHandler() in usb9.c for examples.            C:\3DAQ\firmware\system\usb\class\generic\usbgen.c
                                            *                                                                               C:\3DAQ\firmware\system\usb\class\generic\usbgen.c
                                            * Note:            None                                                         C:\3DAQ\firmware\system\usb\class\generic\usbgen.c
                                            *****************************************************************************/  C:\3DAQ\firmware\system\usb\class\generic\usbgen.c
                                           void USBGenInitEP(void)                                                          C:\3DAQ\firmware\system\usb\class\generic\usbgen.c
                                           {                                                                                C:\3DAQ\firmware\system\usb\class\generic\usbgen.c
0014e6   0100     MOVLB     0x0                usbgen_rx_len = 0;                                                           C:\3DAQ\firmware\system\usb\class\generic\usbgen.c
0014e8   6bfa     CLRF      0xfa,0x1                                                                                        
                                                                                                                            C:\3DAQ\firmware\system\usb\class\generic\usbgen.c
0014ea   0e1e     MOVLW     0x1e               USBGEN_UEP = EP_OUT_IN|HSHK_EN;             // Enable 2 data pipes           C:\3DAQ\firmware\system\usb\class\generic\usbgen.c
0014ec   6e71     MOVWF     0x71,0x0                                                                                        
                                                                                                                            C:\3DAQ\firmware\system\usb\class\generic\usbgen.c
                                               /*                                                                           C:\3DAQ\firmware\system\usb\class\generic\usbgen.c
                                                * Do not have to init Cnt of IN pipes here.                                 C:\3DAQ\firmware\system\usb\class\generic\usbgen.c
                                                * Reason:  Number of bytes to send to the host                              C:\3DAQ\firmware\system\usb\class\generic\usbgen.c
                                                *          varies from one transaction to                                   C:\3DAQ\firmware\system\usb\class\generic\usbgen.c
                                                *          another. Cnt should equal the exact                              C:\3DAQ\firmware\system\usb\class\generic\usbgen.c
                                                *          number of bytes to transmit for                                  C:\3DAQ\firmware\system\usb\class\generic\usbgen.c
                                                *          a given IN transaction.                                          C:\3DAQ\firmware\system\usb\class\generic\usbgen.c
                                                *          This number of bytes will only                                   C:\3DAQ\firmware\system\usb\class\generic\usbgen.c
                                                *          be known right before the data is                                C:\3DAQ\firmware\system\usb\class\generic\usbgen.c
                                                *          sent.                                                            C:\3DAQ\firmware\system\usb\class\generic\usbgen.c
                                                */                                                                          C:\3DAQ\firmware\system\usb\class\generic\usbgen.c
0014ee   0104     MOVLB     0x4                USBGEN_BD_OUT.Cnt = sizeof(usbgen_out);     // Set buffer size               C:\3DAQ\firmware\system\usb\class\generic\usbgen.c
0014f0   0e40     MOVLW     0x40                                                                                            
0014f2   6f09     MOVWF     0x9,0x1                                                                                         
0014f4   0e28     MOVLW     0x28               USBGEN_BD_OUT.ADR = (byte*)&usbgen_out;     // Set buffer address            C:\3DAQ\firmware\system\usb\class\generic\usbgen.c
0014f6   6f0a     MOVWF     0xa,0x1                                                                                         
0014f8   0e04     MOVLW     0x4                                                                                             
0014fa   6f0b     MOVWF     0xb,0x1                                                                                         
0014fc   0e88     MOVLW     0x88               USBGEN_BD_OUT.Stat._byte = _USIE|_DAT0|_DTSEN;// Set status                  C:\3DAQ\firmware\system\usb\class\generic\usbgen.c
0014fe   6f08     MOVWF     0x8,0x1                                                                                         
                                                                                                                            C:\3DAQ\firmware\system\usb\class\generic\usbgen.c
001500   0104     MOVLB     0x4                USBGEN_BD_IN.ADR = (byte*)&usbgen_in;      // Set buffer address             C:\3DAQ\firmware\system\usb\class\generic\usbgen.c
001502   0e68     MOVLW     0x68                                                                                            
001504   6f0e     MOVWF     0xe,0x1                                                                                         
001506   0e04     MOVLW     0x4                                                                                             
001508   6f0f     MOVWF     0xf,0x1                                                                                         
00150a   0e40     MOVLW     0x40               USBGEN_BD_IN.Stat._byte = _UCPU|_DAT1;      // Set buffer status             C:\3DAQ\firmware\system\usb\class\generic\usbgen.c
00150c   6f0c     MOVWF     0xc,0x1                                                                                         
                                                                                                                            C:\3DAQ\firmware\system\usb\class\generic\usbgen.c
00150e   0012     RETURN    0x0            }//end USBGenInitEP                                                              C:\3DAQ\firmware\system\usb\class\generic\usbgen.c
                                                                                                                            C:\3DAQ\firmware\system\usb\class\generic\usbgen.c
                                           /******************************************************************************  C:\3DAQ\firmware\system\usb\class\generic\usbgen.c
                                            * Function:        void USBGenWrite(byte *buffer, byte len)                     C:\3DAQ\firmware\system\usb\class\generic\usbgen.c
                                            *                                                                               C:\3DAQ\firmware\system\usb\class\generic\usbgen.c
                                            * PreCondition:    mUSBGenTxIsBusy() must return false.                         C:\3DAQ\firmware\system\usb\class\generic\usbgen.c
                                            *                                                                               C:\3DAQ\firmware\system\usb\class\generic\usbgen.c
                                            *                  Value of 'len' must be equal to or smaller than              C:\3DAQ\firmware\system\usb\class\generic\usbgen.c
                                            *                  USBGEN_EP_SIZE                                               C:\3DAQ\firmware\system\usb\class\generic\usbgen.c
                                            *                  For an interrupt/bulk endpoint, the largest buffer size is   C:\3DAQ\firmware\system\usb\class\generic\usbgen.c
                                            *                  64 bytes.                                                    C:\3DAQ\firmware\system\usb\class\generic\usbgen.c
                                            *                                                                               C:\3DAQ\firmware\system\usb\class\generic\usbgen.c
                                            * Input:           buffer  : Pointer to the starting location of data bytes     C:\3DAQ\firmware\system\usb\class\generic\usbgen.c
                                            *                  len     : Number of bytes to be transferred                  C:\3DAQ\firmware\system\usb\class\generic\usbgen.c
                                            *                                                                               C:\3DAQ\firmware\system\usb\class\generic\usbgen.c
                                            * Output:          None                                                         C:\3DAQ\firmware\system\usb\class\generic\usbgen.c
                                            *                                                                               C:\3DAQ\firmware\system\usb\class\generic\usbgen.c
                                            * Side Effects:    None                                                         C:\3DAQ\firmware\system\usb\class\generic\usbgen.c
                                            *                                                                               C:\3DAQ\firmware\system\usb\class\generic\usbgen.c
                                            * Overview:        Use this macro to transfer data located in data memory.      C:\3DAQ\firmware\system\usb\class\generic\usbgen.c
                                            *                                                                               C:\3DAQ\firmware\system\usb\class\generic\usbgen.c
                                            *                  Remember: mUSBGenTxIsBusy() must return false before user    C:\3DAQ\firmware\system\usb\class\generic\usbgen.c
                                            *                  can call this function.                                      C:\3DAQ\firmware\system\usb\class\generic\usbgen.c
                                            *                  Unexpected behavior will occur if this function is called    C:\3DAQ\firmware\system\usb\class\generic\usbgen.c
                                            *                  when mUSBGenTxIsBusy() != 0                                  C:\3DAQ\firmware\system\usb\class\generic\usbgen.c
                                            *                                                                               C:\3DAQ\firmware\system\usb\class\generic\usbgen.c
                                            *                  Typical Usage:                                               C:\3DAQ\firmware\system\usb\class\generic\usbgen.c
                                            *                  if(!mUSBGenTxIsBusy())                                       C:\3DAQ\firmware\system\usb\class\generic\usbgen.c
                                            *                      USBGenWrite(buffer, 3);                                  C:\3DAQ\firmware\system\usb\class\generic\usbgen.c
                                            *                                                                               C:\3DAQ\firmware\system\usb\class\generic\usbgen.c
                                            * Note:            None                                                         C:\3DAQ\firmware\system\usb\class\generic\usbgen.c
                                            *****************************************************************************/  C:\3DAQ\firmware\system\usb\class\generic\usbgen.c
001510   cfd9     MOVFF     0xfd9,0xfe6    void USBGenWrite(byte *buffer, byte len)                                         C:\3DAQ\firmware\system\usb\class\generic\usbgen.c
001512   ffe6                                                                                                               
001514   cfe1     MOVFF     0xfe1,0xfd9                                                                                     
001516   ffd9                                                                                                               
001518   52e6     MOVF      0xe6,0x1,0x0                                                                                    
                                           {                                                                                C:\3DAQ\firmware\system\usb\class\generic\usbgen.c
                                           	byte i;                                                                         C:\3DAQ\firmware\system\usb\class\generic\usbgen.c
                                           	                                                                                C:\3DAQ\firmware\system\usb\class\generic\usbgen.c
                                               /*                                                                           C:\3DAQ\firmware\system\usb\class\generic\usbgen.c
                                                * Value of len should be equal to or smaller than USBGEN_EP_SIZE.           C:\3DAQ\firmware\system\usb\class\generic\usbgen.c
                                                * This check forces the value of len to meet the precondition.              C:\3DAQ\firmware\system\usb\class\generic\usbgen.c
                                                */                                                                          C:\3DAQ\firmware\system\usb\class\generic\usbgen.c
00151a   0efc     MOVLW     0xfc           	if(len > USBGEN_EP_SIZE)                                                        C:\3DAQ\firmware\system\usb\class\generic\usbgen.c
00151c   50db     MOVF      0xdb,0x0,0x0                                                                                    
00151e   0840     SUBLW     0x40                                                                                            
001520   e205     BC        0x152c                                                                                          
001522   0e40     MOVLW     0x40           	    len = USBGEN_EP_SIZE;                                                       C:\3DAQ\firmware\system\usb\class\generic\usbgen.c
001524   6ef3     MOVWF     0xf3,0x0                                                                                        
001526   0efc     MOVLW     0xfc                                                                                            
001528   cff3     MOVFF     0xff3,0xfdb                                                                                     
00152a   ffdb                                                                                                               
                                                                                                                            C:\3DAQ\firmware\system\usb\class\generic\usbgen.c
                                              /*                                                                            C:\3DAQ\firmware\system\usb\class\generic\usbgen.c
                                               * Copy data from user's buffer to dual-ram buffer                            C:\3DAQ\firmware\system\usb\class\generic\usbgen.c
                                               */                                                                           C:\3DAQ\firmware\system\usb\class\generic\usbgen.c
00152c   6adf     CLRF      0xdf,0x0           for (i = 0; i < len; i++)                                                    C:\3DAQ\firmware\system\usb\class\generic\usbgen.c
00152e   0efc     MOVLW     0xfc                                                                                            
001530   50db     MOVF      0xdb,0x0,0x0                                                                                    
001532   5cdf     SUBWF     0xdf,0x0,0x0                                                                                    
001534   e219     BC        0x1568                                                                                          
001564   2adf     INCF      0xdf,0x1,0x0                                                                                    
001566   d7e3     BRA       0x152e                                                                                          
001536   50df     MOVF      0xdf,0x0,0x0       	usbgen_in[i] = buffer[i];                                                   C:\3DAQ\firmware\system\usb\class\generic\usbgen.c
001538   6ee7     MOVWF     0xe7,0x0                                                                                        
00153a   0efd     MOVLW     0xfd                                                                                            
00153c   cfdb     MOVFF     0xfdb,0xfe9                                                                                     
00153e   ffe9                                                                                                               
001540   0efe     MOVLW     0xfe                                                                                            
001542   cfdb     MOVFF     0xfdb,0xfea                                                                                     
001544   ffea                                                                                                               
001546   50e7     MOVF      0xe7,0x0,0x0                                                                                    
001548   26e9     ADDWF     0xe9,0x1,0x0                                                                                    
00154a   0e00     MOVLW     0x0                                                                                             
00154c   22ea     ADDWFC    0xea,0x1,0x0                                                                                    
00154e   50ef     MOVF      0xef,0x0,0x0                                                                                    
001550   6ee6     MOVWF     0xe6,0x0                                                                                        
001552   50df     MOVF      0xdf,0x0,0x0                                                                                    
001554   6aea     CLRF      0xea,0x0                                                                                        
001556   0f68     ADDLW     0x68                                                                                            
001558   6ee9     MOVWF     0xe9,0x0                                                                                        
00155a   0e04     MOVLW     0x4                                                                                             
00155c   22ea     ADDWFC    0xea,0x1,0x0                                                                                    
00155e   52e5     MOVF      0xe5,0x1,0x0                                                                                    
001560   50e7     MOVF      0xe7,0x0,0x0                                                                                    
001562   6eef     MOVWF     0xef,0x0                                                                                        
                                                                                                                            C:\3DAQ\firmware\system\usb\class\generic\usbgen.c
001568   0efc     MOVLW     0xfc               USBGEN_BD_IN.Cnt = len;                                                      C:\3DAQ\firmware\system\usb\class\generic\usbgen.c
00156a   cfdb     MOVFF     0xfdb,0x40d                                                                                     
00156c   f40d                                                                                                               
00156e   0e40     MOVLW     0x40               mUSBBufferReady(USBGEN_BD_IN);                                               C:\3DAQ\firmware\system\usb\class\generic\usbgen.c
001570   0104     MOVLB     0x4                                                                                             
001572   170c     ANDWF     0xc,0x1,0x1                                                                                     
001574   7d0c     BTG       0xc,0x6,0x1                                                                                     
001576   0e88     MOVLW     0x88                                                                                            
001578   130c     IORWF     0xc,0x1,0x1                                                                                     
                                           		//mod by Tim                                                                   C:\3DAQ\firmware\system\usb\class\generic\usbgen.c
                                           		//CodeSectionAccessed(0x2);                                                    C:\3DAQ\firmware\system\usb\class\generic\usbgen.c
                                           		//end mod by Tim                                                               C:\3DAQ\firmware\system\usb\class\generic\usbgen.c
00157a   52e5     MOVF      0xe5,0x1,0x0   }//end USBGenWrite                                                               C:\3DAQ\firmware\system\usb\class\generic\usbgen.c
00157c   52e5     MOVF      0xe5,0x1,0x0                                                                                    
00157e   cfe7     MOVFF     0xfe7,0xfd9                                                                                     
001580   ffd9                                                                                                               
001582   0012     RETURN    0x0                                                                                             
                                                                                                                            C:\3DAQ\firmware\system\usb\class\generic\usbgen.c
                                           /******************************************************************************  C:\3DAQ\firmware\system\usb\class\generic\usbgen.c
                                            * Function:        byte USBGenRead(byte *buffer, byte len)                      C:\3DAQ\firmware\system\usb\class\generic\usbgen.c
                                            *                                                                               C:\3DAQ\firmware\system\usb\class\generic\usbgen.c
                                            * PreCondition:    Value of input argument 'len' should be smaller than the     C:\3DAQ\firmware\system\usb\class\generic\usbgen.c
                                            *                  maximum endpoint size responsible for receiving report       C:\3DAQ\firmware\system\usb\class\generic\usbgen.c
                                            *                  data from USB host for HID class.                            C:\3DAQ\firmware\system\usb\class\generic\usbgen.c
                                            *                  Input argument 'buffer' should point to a buffer area that   C:\3DAQ\firmware\system\usb\class\generic\usbgen.c
                                            *                  is bigger or equal to the size specified by 'len'.           C:\3DAQ\firmware\system\usb\class\generic\usbgen.c
                                            *                                                                               C:\3DAQ\firmware\system\usb\class\generic\usbgen.c
                                            * Input:           buffer  : Pointer to where received bytes are to be stored   C:\3DAQ\firmware\system\usb\class\generic\usbgen.c
                                            *                  len     : The number of bytes expected.                      C:\3DAQ\firmware\system\usb\class\generic\usbgen.c
                                            *                                                                               C:\3DAQ\firmware\system\usb\class\generic\usbgen.c
                                            * Output:          The number of bytes copied to buffer.                        C:\3DAQ\firmware\system\usb\class\generic\usbgen.c
                                            *                                                                               C:\3DAQ\firmware\system\usb\class\generic\usbgen.c
                                            * Side Effects:    Publicly accessible variable usbgen_rx_len is updated        C:\3DAQ\firmware\system\usb\class\generic\usbgen.c
                                            *                  with the number of bytes copied to buffer.                   C:\3DAQ\firmware\system\usb\class\generic\usbgen.c
                                            *                  Once USBGenRead is called, subsequent retrieval of           C:\3DAQ\firmware\system\usb\class\generic\usbgen.c
                                            *                  usbgen_rx_len can be done by calling macro                   C:\3DAQ\firmware\system\usb\class\generic\usbgen.c
                                            *                  mUSBGenGetRxLength().                                        C:\3DAQ\firmware\system\usb\class\generic\usbgen.c
                                            *                                                                               C:\3DAQ\firmware\system\usb\class\generic\usbgen.c
                                            * Overview:        USBGenRead copies a string of bytes received through         C:\3DAQ\firmware\system\usb\class\generic\usbgen.c
                                            *                  the OUT endpoint to a user's specified location.             C:\3DAQ\firmware\system\usb\class\generic\usbgen.c
                                            *                  It is a non-blocking function. It does not wait              C:\3DAQ\firmware\system\usb\class\generic\usbgen.c
                                            *                  for data if there is no data available. Instead it returns   C:\3DAQ\firmware\system\usb\class\generic\usbgen.c
                                            *                  '0' to notify the caller that there is no data available.    C:\3DAQ\firmware\system\usb\class\generic\usbgen.c
                                            *                                                                               C:\3DAQ\firmware\system\usb\class\generic\usbgen.c
                                            * Note:            If the actual number of bytes received is larger than the    C:\3DAQ\firmware\system\usb\class\generic\usbgen.c
                                            *                  number of bytes expected (len), only the expected number     C:\3DAQ\firmware\system\usb\class\generic\usbgen.c
                                            *                  of bytes specified will be copied to buffer.                 C:\3DAQ\firmware\system\usb\class\generic\usbgen.c
                                            *                  If the actual number of bytes received is smaller than the   C:\3DAQ\firmware\system\usb\class\generic\usbgen.c
                                            *                  number of bytes expected (len), only the actual number       C:\3DAQ\firmware\system\usb\class\generic\usbgen.c
                                            *                  of bytes received will be copied to buffer.                  C:\3DAQ\firmware\system\usb\class\generic\usbgen.c
                                            *****************************************************************************/  C:\3DAQ\firmware\system\usb\class\generic\usbgen.c
001584   cfd9     MOVFF     0xfd9,0xfe6    byte USBGenRead(byte *buffer, byte len)                                          C:\3DAQ\firmware\system\usb\class\generic\usbgen.c
001586   ffe6                                                                                                               
001588   cfe1     MOVFF     0xfe1,0xfd9                                                                                     
00158a   ffd9                                                                                                               
                                           {                                                                                C:\3DAQ\firmware\system\usb\class\generic\usbgen.c
00158c   0100     MOVLB     0x0                usbgen_rx_len = 0;                                                           C:\3DAQ\firmware\system\usb\class\generic\usbgen.c
00158e   6bfa     CLRF      0xfa,0x1                                                                                        
                                                                                                                            C:\3DAQ\firmware\system\usb\class\generic\usbgen.c
001590   0104     MOVLB     0x4                if(!mUSBGenRxIsBusy())                                                       C:\3DAQ\firmware\system\usb\class\generic\usbgen.c
001592   bf08     BTFSC     0x8,0x7,0x1                                                                                     
001594   d030     BRA       0x15f6                                                                                          
                                               {                                                                            C:\3DAQ\firmware\system\usb\class\generic\usbgen.c
                                                   /*                                                                       C:\3DAQ\firmware\system\usb\class\generic\usbgen.c
                                                    * Adjust the expected number of bytes to equal                          C:\3DAQ\firmware\system\usb\class\generic\usbgen.c
                                                    * the actual number of bytes received.                                  C:\3DAQ\firmware\system\usb\class\generic\usbgen.c
                                                    */                                                                      C:\3DAQ\firmware\system\usb\class\generic\usbgen.c
001596   0efc     MOVLW     0xfc                   if(len > USBGEN_BD_OUT.Cnt)                                              C:\3DAQ\firmware\system\usb\class\generic\usbgen.c
001598   cfdb     MOVFF     0xfdb,0x14                                                                                      
00159a   f014                                                                                                               
00159c   5109     MOVF      0x9,0x0,0x1                                                                                     
00159e   80d8     BSF       0xd8,0x0,0x0                                                                                    
0015a0   5414     SUBFWB    0x14,0x0,0x0                                                                                    
0015a2   e203     BC        0x15aa                                                                                          
0015a4   0efc     MOVLW     0xfc                       len = USBGEN_BD_OUT.Cnt;                                             C:\3DAQ\firmware\system\usb\class\generic\usbgen.c
0015a6   c409     MOVFF     0x409,0xfdb                                                                                     
0015a8   ffdb                                                                                                               
                                                                                                                            C:\3DAQ\firmware\system\usb\class\generic\usbgen.c
                                                   /*                                                                       C:\3DAQ\firmware\system\usb\class\generic\usbgen.c
                                                    * Copy data from dual-ram buffer to user's buffer                       C:\3DAQ\firmware\system\usb\class\generic\usbgen.c
                                                    */                                                                      C:\3DAQ\firmware\system\usb\class\generic\usbgen.c
0015aa   0100     MOVLB     0x0                    for(usbgen_rx_len = 0; usbgen_rx_len < len; usbgen_rx_len++)             C:\3DAQ\firmware\system\usb\class\generic\usbgen.c
0015ac   6bfa     CLRF      0xfa,0x1                                                                                        
0015ae   0efc     MOVLW     0xfc                                                                                            
0015b0   50db     MOVF      0xdb,0x0,0x0                                                                                    
0015b2   5dfa     SUBWF     0xfa,0x0,0x1                                                                                    
0015b4   e219     BC        0x15e8                                                                                          
0015e4   2bfa     INCF      0xfa,0x1,0x1                                                                                    
0015e6   d7e3     BRA       0x15ae                                                                                          
0015b6   51fa     MOVF      0xfa,0x0,0x1               buffer[usbgen_rx_len] = usbgen_out[usbgen_rx_len];                   C:\3DAQ\firmware\system\usb\class\generic\usbgen.c
0015b8   6aea     CLRF      0xea,0x0                                                                                        
0015ba   0f28     ADDLW     0x28                                                                                            
0015bc   6ee9     MOVWF     0xe9,0x0                                                                                        
0015be   0e04     MOVLW     0x4                                                                                             
0015c0   22ea     ADDWFC    0xea,0x1,0x0                                                                                    
0015c2   50ef     MOVF      0xef,0x0,0x0                                                                                    
0015c4   6ee6     MOVWF     0xe6,0x0                                                                                        
0015c6   51fa     MOVF      0xfa,0x0,0x1                                                                                    
0015c8   6ee7     MOVWF     0xe7,0x0                                                                                        
0015ca   0efd     MOVLW     0xfd                                                                                            
0015cc   cfdb     MOVFF     0xfdb,0xfe9                                                                                     
0015ce   ffe9                                                                                                               
0015d0   0efe     MOVLW     0xfe                                                                                            
0015d2   cfdb     MOVFF     0xfdb,0xfea                                                                                     
0015d4   ffea                                                                                                               
0015d6   50e7     MOVF      0xe7,0x0,0x0                                                                                    
0015d8   26e9     ADDWF     0xe9,0x1,0x0                                                                                    
0015da   0e00     MOVLW     0x0                                                                                             
0015dc   22ea     ADDWFC    0xea,0x1,0x0                                                                                    
0015de   52e5     MOVF      0xe5,0x1,0x0                                                                                    
0015e0   50e7     MOVF      0xe7,0x0,0x0                                                                                    
0015e2   6eef     MOVWF     0xef,0x0                                                                                        
                                                                                                                            C:\3DAQ\firmware\system\usb\class\generic\usbgen.c
                                                   /*                                                                       C:\3DAQ\firmware\system\usb\class\generic\usbgen.c
                                                    * Prepare dual-ram buffer for next OUT transaction                      C:\3DAQ\firmware\system\usb\class\generic\usbgen.c
                                                    */                                                                      C:\3DAQ\firmware\system\usb\class\generic\usbgen.c
0015e8   0104     MOVLB     0x4                    USBGEN_BD_OUT.Cnt = sizeof(usbgen_out);                                  C:\3DAQ\firmware\system\usb\class\generic\usbgen.c
0015ea   0e40     MOVLW     0x40                                                                                            
0015ec   6f09     MOVWF     0x9,0x1                                                                                         
0015ee   1708     ANDWF     0x8,0x1,0x1            mUSBBufferReady(USBGEN_BD_OUT);                                          C:\3DAQ\firmware\system\usb\class\generic\usbgen.c
0015f0   7d08     BTG       0x8,0x6,0x1                                                                                     
0015f2   0e88     MOVLW     0x88                                                                                            
0015f4   1308     IORWF     0x8,0x1,0x1                                                                                     
                                               }//end if                                                                    C:\3DAQ\firmware\system\usb\class\generic\usbgen.c
                                                                                                                            C:\3DAQ\firmware\system\usb\class\generic\usbgen.c
0015f6   0100     MOVLB     0x0                return usbgen_rx_len;                                                        C:\3DAQ\firmware\system\usb\class\generic\usbgen.c
0015f8   51fa     MOVF      0xfa,0x0,0x1                                                                                    
0015fa   d000     BRA       0x15fc                                                                                          
                                                                                                                            C:\3DAQ\firmware\system\usb\class\generic\usbgen.c
0015fc   52e5     MOVF      0xe5,0x1,0x0   }//end USBGenRead                                                                C:\3DAQ\firmware\system\usb\class\generic\usbgen.c
0015fe   cfe7     MOVFF     0xfe7,0xfd9                                                                                     
001600   ffd9                                                                                                               
001602   0012     RETURN    0x0                                                                                             
                                                                                                                            C:\3DAQ\firmware\system\usb\class\generic\usbgen.c
                                           #endif //def USB_USE_GEN                                                         C:\3DAQ\firmware\system\usb\class\generic\usbgen.c
                                                                                                                            C:\3DAQ\firmware\system\usb\class\generic\usbgen.c
                                           /** EOF usbgen.c *************************************************************/  C:\3DAQ\firmware\system\usb\class\generic\usbgen.c
                                                   LIST P=18F4550                                                           C:\MCC18\SRC\TRADIT~1\PROC\p18f4550.asm
                                                   LIST                                                                     C:\MCC18\SRC\TRADIT~1\PROC\p18f4550.asm
                                                   END                                                                      C:\MCC18\SRC\TRADIT~1\PROC\p18f4550.asm
                                           ;	RCS Header $Id: fxm1616s.asm,v 1.3 2006/01/12 23:16:38 rhinec Exp $            C:\MCC18\SRC\TRADIT~1\MATH\fxm1616s.asm
                                                                                                                            C:\MCC18\SRC\TRADIT~1\MATH\fxm1616s.asm
                                           ;	$Revision: 1.3 $                                                               C:\MCC18\SRC\TRADIT~1\MATH\fxm1616s.asm
                                                                                                                            C:\MCC18\SRC\TRADIT~1\MATH\fxm1616s.asm
                                           	include <P18CXXX.INC>		; general Golden Gate definitions                        C:\MCC18\SRC\TRADIT~1\MATH\fxm1616s.asm
                                                   LIST                                                                     C:\MCC18\MPASM\P18CXXX.INC
                                           ; P18CXXX.INC  Standard Header File, Version 1.00   Microchip Technology, Inc.   C:\MCC18\MPASM\P18CXXX.INC
                                                   LIST                                                                     C:\MCC18\MPASM\P18C452.INC
                                           ; P18C452.INC  Standard Header File, Version 0.12   Microchip Technology, Inc.   C:\MCC18\MPASM\P18C452.INC
                                                   LIST                                                                     C:\MCC18\MPASM\P18C452.INC
                                             ENDIF                                                                          C:\MCC18\MPASM\P18CXXX.INC
                                             IFDEF __18C242                                                                 C:\MCC18\MPASM\P18CXXX.INC
                                                INCLUDE <P18C242.INC>                                                       C:\MCC18\MPASM\P18CXXX.INC
                                             ENDIF                                                                          C:\MCC18\MPASM\P18CXXX.INC
                                             IFDEF __18F242                                                                 C:\MCC18\MPASM\P18CXXX.INC
                                                INCLUDE <P18F242.INC>                                                       C:\MCC18\MPASM\P18CXXX.INC
                                             ENDIF                                                                          C:\MCC18\MPASM\P18CXXX.INC
                                             IFDEF __18F248                                                                 C:\MCC18\MPASM\P18CXXX.INC
                                                INCLUDE <P18F248.INC>                                                       C:\MCC18\MPASM\P18CXXX.INC
                                             ENDIF                                                                          C:\MCC18\MPASM\P18CXXX.INC
                                             IFDEF __18C252                                                                 C:\MCC18\MPASM\P18CXXX.INC
                                                INCLUDE <P18C252.INC>                                                       C:\MCC18\MPASM\P18CXXX.INC
                                             ENDIF                                                                          C:\MCC18\MPASM\P18CXXX.INC
                                             IFDEF __18F252                                                                 C:\MCC18\MPASM\P18CXXX.INC
                                                INCLUDE <P18F252.INC>                                                       C:\MCC18\MPASM\P18CXXX.INC
                                             ENDIF                                                                          C:\MCC18\MPASM\P18CXXX.INC
                                             IFDEF __18F258                                                                 C:\MCC18\MPASM\P18CXXX.INC
                                                INCLUDE <P18F258.INC>                                                       C:\MCC18\MPASM\P18CXXX.INC
                                             ENDIF                                                                          C:\MCC18\MPASM\P18CXXX.INC
                                             IFDEF __18C442                                                                 C:\MCC18\MPASM\P18CXXX.INC
                                                INCLUDE <P18C442.INC>                                                       C:\MCC18\MPASM\P18CXXX.INC
                                             ENDIF                                                                          C:\MCC18\MPASM\P18CXXX.INC
                                             IFDEF __18F442                                                                 C:\MCC18\MPASM\P18CXXX.INC
                                                INCLUDE <P18F442.INC>                                                       C:\MCC18\MPASM\P18CXXX.INC
                                             ENDIF                                                                          C:\MCC18\MPASM\P18CXXX.INC
                                             IFDEF __18F448                                                                 C:\MCC18\MPASM\P18CXXX.INC
                                                INCLUDE <P18F448.INC>                                                       C:\MCC18\MPASM\P18CXXX.INC
                                             ENDIF                                                                          C:\MCC18\MPASM\P18CXXX.INC
                                             IFDEF __18C452                                                                 C:\MCC18\MPASM\P18CXXX.INC
                                                INCLUDE <P18C452.INC>                                                       C:\MCC18\MPASM\P18CXXX.INC
                                             ENDIF                                                                          C:\MCC18\MPASM\P18CXXX.INC
                                             IFDEF __18F452                                                                 C:\MCC18\MPASM\P18CXXX.INC
                                                INCLUDE <P18F452.INC>                                                       C:\MCC18\MPASM\P18CXXX.INC
                                             ENDIF                                                                          C:\MCC18\MPASM\P18CXXX.INC
                                             IFDEF __18F458                                                                 C:\MCC18\MPASM\P18CXXX.INC
                                                INCLUDE <P18F458.INC>                                                       C:\MCC18\MPASM\P18CXXX.INC
                                             ENDIF                                                                          C:\MCC18\MPASM\P18CXXX.INC
                                             IFDEF __18C601                                                                 C:\MCC18\MPASM\P18CXXX.INC
                                                INCLUDE <P18C601.INC>                                                       C:\MCC18\MPASM\P18CXXX.INC
                                             ENDIF                                                                          C:\MCC18\MPASM\P18CXXX.INC
                                             IFDEF __18C658                                                                 C:\MCC18\MPASM\P18CXXX.INC
                                                INCLUDE <P18C658.INC>                                                       C:\MCC18\MPASM\P18CXXX.INC
                                             ENDIF                                                                          C:\MCC18\MPASM\P18CXXX.INC
                                             IFDEF __18C801                                                                 C:\MCC18\MPASM\P18CXXX.INC
                                                INCLUDE <P18C801.INC>                                                       C:\MCC18\MPASM\P18CXXX.INC
                                             ENDIF                                                                          C:\MCC18\MPASM\P18CXXX.INC
                                             IFDEF __18C858                                                                 C:\MCC18\MPASM\P18CXXX.INC
                                                INCLUDE <P18C858.INC>                                                       C:\MCC18\MPASM\P18CXXX.INC
                                             ENDIF                                                                          C:\MCC18\MPASM\P18CXXX.INC
                                             IFDEF __18F1220                                                                C:\MCC18\MPASM\P18CXXX.INC
                                                INCLUDE <P18F1220.INC>                                                      C:\MCC18\MPASM\P18CXXX.INC
                                             ENDIF                                                                          C:\MCC18\MPASM\P18CXXX.INC
                                             IFDEF __18F1320                                                                C:\MCC18\MPASM\P18CXXX.INC
                                                INCLUDE <P18F1320.INC>                                                      C:\MCC18\MPASM\P18CXXX.INC
                                             ENDIF                                                                          C:\MCC18\MPASM\P18CXXX.INC
                                             IFDEF __18F2220                                                                C:\MCC18\MPASM\P18CXXX.INC
                                                INCLUDE <P18F2220.INC>                                                      C:\MCC18\MPASM\P18CXXX.INC
                                             ENDIF                                                                          C:\MCC18\MPASM\P18CXXX.INC
                                             IFDEF __18F2320                                                                C:\MCC18\MPASM\P18CXXX.INC
                                                INCLUDE <P18F2320.INC>                                                      C:\MCC18\MPASM\P18CXXX.INC
                                             ENDIF                                                                          C:\MCC18\MPASM\P18CXXX.INC
                                             IFDEF __18F4220                                                                C:\MCC18\MPASM\P18CXXX.INC
                                                INCLUDE <P18F4220.INC>                                                      C:\MCC18\MPASM\P18CXXX.INC
                                             ENDIF                                                                          C:\MCC18\MPASM\P18CXXX.INC
                                             IFDEF __18F4320                                                                C:\MCC18\MPASM\P18CXXX.INC
                                                INCLUDE <P18F4320.INC>                                                      C:\MCC18\MPASM\P18CXXX.INC
                                             ENDIF                                                                          C:\MCC18\MPASM\P18CXXX.INC
                                             IFDEF __18F6520                                                                C:\MCC18\MPASM\P18CXXX.INC
                                                INCLUDE <P18F6520.INC>                                                      C:\MCC18\MPASM\P18CXXX.INC
                                             ENDIF                                                                          C:\MCC18\MPASM\P18CXXX.INC
                                             IFDEF __18F6620                                                                C:\MCC18\MPASM\P18CXXX.INC
                                                INCLUDE <P18F6620.INC>                                                      C:\MCC18\MPASM\P18CXXX.INC
                                             ENDIF                                                                          C:\MCC18\MPASM\P18CXXX.INC
                                             IFDEF __18F6720                                                                C:\MCC18\MPASM\P18CXXX.INC
                                                INCLUDE <P18F6720.INC>                                                      C:\MCC18\MPASM\P18CXXX.INC
                                             ENDIF                                                                          C:\MCC18\MPASM\P18CXXX.INC
                                             IFDEF __18F8520                                                                C:\MCC18\MPASM\P18CXXX.INC
                                                INCLUDE <P18F8520.INC>                                                      C:\MCC18\MPASM\P18CXXX.INC
                                             ENDIF                                                                          C:\MCC18\MPASM\P18CXXX.INC
                                             IFDEF __18F8620                                                                C:\MCC18\MPASM\P18CXXX.INC
                                                INCLUDE <P18F8620.INC>                                                      C:\MCC18\MPASM\P18CXXX.INC
                                             ENDIF                                                                          C:\MCC18\MPASM\P18CXXX.INC
                                             IFDEF __18F8720                                                                C:\MCC18\MPASM\P18CXXX.INC
                                                INCLUDE <P18F8720.INC>                                                      C:\MCC18\MPASM\P18CXXX.INC
                                             ENDIF                                                                          C:\MCC18\MPASM\P18CXXX.INC
                                             IFDEF __18F2439                                                                C:\MCC18\MPASM\P18CXXX.INC
                                                INCLUDE <P18F2439.INC>                                                      C:\MCC18\MPASM\P18CXXX.INC
                                             ENDIF                                                                          C:\MCC18\MPASM\P18CXXX.INC
                                             IFDEF __18F2539                                                                C:\MCC18\MPASM\P18CXXX.INC
                                                INCLUDE <P18F2539.INC>                                                      C:\MCC18\MPASM\P18CXXX.INC
                                             ENDIF                                                                          C:\MCC18\MPASM\P18CXXX.INC
                                             IFDEF __18F4439                                                                C:\MCC18\MPASM\P18CXXX.INC
                                                INCLUDE <P18F4439.INC>                                                      C:\MCC18\MPASM\P18CXXX.INC
                                             ENDIF                                                                          C:\MCC18\MPASM\P18CXXX.INC
                                             IFDEF __18F4539                                                                C:\MCC18\MPASM\P18CXXX.INC
                                                INCLUDE <P18F4539.INC>                                                      C:\MCC18\MPASM\P18CXXX.INC
                                             ENDIF                                                                          C:\MCC18\MPASM\P18CXXX.INC
                                             IFDEF __18F8680                                                                C:\MCC18\MPASM\P18CXXX.INC
                                                INCLUDE <P18F8680.INC>                                                      C:\MCC18\MPASM\P18CXXX.INC
                                             ENDIF                                                                          C:\MCC18\MPASM\P18CXXX.INC
                                             IFDEF __18F6680                                                                C:\MCC18\MPASM\P18CXXX.INC
                                                INCLUDE <P18F6680.INC>                                                      C:\MCC18\MPASM\P18CXXX.INC
                                             ENDIF                                                                          C:\MCC18\MPASM\P18CXXX.INC
                                             IFDEF __18F8585                                                                C:\MCC18\MPASM\P18CXXX.INC
                                                INCLUDE <P18F8585.INC>                                                      C:\MCC18\MPASM\P18CXXX.INC
                                             ENDIF                                                                          C:\MCC18\MPASM\P18CXXX.INC
                                             IFDEF __18F6585                                                                C:\MCC18\MPASM\P18CXXX.INC
                                                INCLUDE <P18F6585.INC>                                                      C:\MCC18\MPASM\P18CXXX.INC
                                             ENDIF                                                                          C:\MCC18\MPASM\P18CXXX.INC
                                             IFDEF __18F6621                                                                C:\MCC18\MPASM\P18CXXX.INC
                                                INCLUDE <P18F6621.INC>                                                      C:\MCC18\MPASM\P18CXXX.INC
                                             ENDIF                                                                          C:\MCC18\MPASM\P18CXXX.INC
                                             IFDEF __18F8621                                                                C:\MCC18\MPASM\P18CXXX.INC
                                                INCLUDE <P18F8621.INC>                                                      C:\MCC18\MPASM\P18CXXX.INC
                                             ENDIF                                                                          C:\MCC18\MPASM\P18CXXX.INC
                                             IFDEF __18F6525                                                                C:\MCC18\MPASM\P18CXXX.INC
                                                INCLUDE <P18F6525.INC>                                                      C:\MCC18\MPASM\P18CXXX.INC
                                             ENDIF                                                                          C:\MCC18\MPASM\P18CXXX.INC
                                             IFDEF __18F8525                                                                C:\MCC18\MPASM\P18CXXX.INC
                                                INCLUDE <P18F8525.INC>                                                      C:\MCC18\MPASM\P18CXXX.INC
                                             ENDIF                                                                          C:\MCC18\MPASM\P18CXXX.INC
                                             IFDEF __18F2331                                                                C:\MCC18\MPASM\P18CXXX.INC
                                                INCLUDE <P18F2331.INC>                                                      C:\MCC18\MPASM\P18CXXX.INC
                                             ENDIF                                                                          C:\MCC18\MPASM\P18CXXX.INC
                                             IFDEF __18F2431                                                                C:\MCC18\MPASM\P18CXXX.INC
                                                INCLUDE <P18F2431.INC>                                                      C:\MCC18\MPASM\P18CXXX.INC
                                             ENDIF                                                                          C:\MCC18\MPASM\P18CXXX.INC
                                             IFDEF __18F4331                                                                C:\MCC18\MPASM\P18CXXX.INC
                                                INCLUDE <P18F4331.INC>                                                      C:\MCC18\MPASM\P18CXXX.INC
                                             ENDIF                                                                          C:\MCC18\MPASM\P18CXXX.INC
                                             IFDEF __18F4431                                                                C:\MCC18\MPASM\P18CXXX.INC
                                                INCLUDE <P18F4431.INC>                                                      C:\MCC18\MPASM\P18CXXX.INC
                                             ENDIF                                                                          C:\MCC18\MPASM\P18CXXX.INC
                                             IFDEF __18F2515                                                                C:\MCC18\MPASM\P18CXXX.INC
                                                INCLUDE <P18F2515.INC>                                                      C:\MCC18\MPASM\P18CXXX.INC
                                             ENDIF                                                                          C:\MCC18\MPASM\P18CXXX.INC
                                             IFDEF __18F2525                                                                C:\MCC18\MPASM\P18CXXX.INC
                                                INCLUDE <P18F2525.INC>                                                      C:\MCC18\MPASM\P18CXXX.INC
                                             ENDIF                                                                          C:\MCC18\MPASM\P18CXXX.INC
                                             IFDEF __18F2610                                                                C:\MCC18\MPASM\P18CXXX.INC
                                                INCLUDE <P18F2610.INC>                                                      C:\MCC18\MPASM\P18CXXX.INC
                                             ENDIF                                                                          C:\MCC18\MPASM\P18CXXX.INC
                                             IFDEF __18F2620                                                                C:\MCC18\MPASM\P18CXXX.INC
                                                INCLUDE <P18F2620.INC>                                                      C:\MCC18\MPASM\P18CXXX.INC
                                             ENDIF                                                                          C:\MCC18\MPASM\P18CXXX.INC
                                             IFDEF __18F4515                                                                C:\MCC18\MPASM\P18CXXX.INC
                                                INCLUDE <P18F4515.INC>                                                      C:\MCC18\MPASM\P18CXXX.INC
                                             ENDIF                                                                          C:\MCC18\MPASM\P18CXXX.INC
                                             IFDEF __18F4525                                                                C:\MCC18\MPASM\P18CXXX.INC
                                                INCLUDE <P18F4525.INC>                                                      C:\MCC18\MPASM\P18CXXX.INC
                                             ENDIF                                                                          C:\MCC18\MPASM\P18CXXX.INC
                                             IFDEF __18F4610                                                                C:\MCC18\MPASM\P18CXXX.INC
                                                INCLUDE <P18F4610.INC>                                                      C:\MCC18\MPASM\P18CXXX.INC
                                             ENDIF                                                                          C:\MCC18\MPASM\P18CXXX.INC
                                             IFDEF __18F4620                                                                C:\MCC18\MPASM\P18CXXX.INC
                                                INCLUDE <P18F4620.INC>                                                      C:\MCC18\MPASM\P18CXXX.INC
                                             ENDIF                                                                          C:\MCC18\MPASM\P18CXXX.INC
                                             IFDEF __18F6410                                                                C:\MCC18\MPASM\P18CXXX.INC
                                                INCLUDE <P18F6410.INC>                                                      C:\MCC18\MPASM\P18CXXX.INC
                                             ENDIF                                                                          C:\MCC18\MPASM\P18CXXX.INC
                                             IFDEF __18F6490                                                                C:\MCC18\MPASM\P18CXXX.INC
                                                INCLUDE <P18F6490.INC>                                                      C:\MCC18\MPASM\P18CXXX.INC
                                             ENDIF                                                                          C:\MCC18\MPASM\P18CXXX.INC
                                             IFDEF __18F8410                                                                C:\MCC18\MPASM\P18CXXX.INC
                                                INCLUDE <P18F8410.INC>                                                      C:\MCC18\MPASM\P18CXXX.INC
                                             ENDIF                                                                          C:\MCC18\MPASM\P18CXXX.INC
                                             IFDEF __18F8490                                                                C:\MCC18\MPASM\P18CXXX.INC
                                                INCLUDE <P18F8490.INC>                                                      C:\MCC18\MPASM\P18CXXX.INC
                                             ENDIF                                                                          C:\MCC18\MPASM\P18CXXX.INC
                                             IFDEF __18F2585                                                                C:\MCC18\MPASM\P18CXXX.INC
                                                INCLUDE <P18F2585.INC>                                                      C:\MCC18\MPASM\P18CXXX.INC
                                             ENDIF                                                                          C:\MCC18\MPASM\P18CXXX.INC
                                             IFDEF __18F2680                                                                C:\MCC18\MPASM\P18CXXX.INC
                                                INCLUDE <P18F2680.INC>                                                      C:\MCC18\MPASM\P18CXXX.INC
                                             ENDIF                                                                          C:\MCC18\MPASM\P18CXXX.INC
                                             IFDEF __18F2681                                                                C:\MCC18\MPASM\P18CXXX.INC
                                                INCLUDE <P18F2681.INC>                                                      C:\MCC18\MPASM\P18CXXX.INC
                                             ENDIF                                                                          C:\MCC18\MPASM\P18CXXX.INC
                                             IFDEF __18F4585                                                                C:\MCC18\MPASM\P18CXXX.INC
                                                INCLUDE <P18F4585.INC>                                                      C:\MCC18\MPASM\P18CXXX.INC
                                             ENDIF                                                                          C:\MCC18\MPASM\P18CXXX.INC
                                             IFDEF __18F4680                                                                C:\MCC18\MPASM\P18CXXX.INC
                                                INCLUDE <P18F4680.INC>                                                      C:\MCC18\MPASM\P18CXXX.INC
                                             ENDIF                                                                          C:\MCC18\MPASM\P18CXXX.INC
                                             IFDEF __18F4681                                                                C:\MCC18\MPASM\P18CXXX.INC
                                                INCLUDE <P18F4681.INC>                                                      C:\MCC18\MPASM\P18CXXX.INC
                                             ENDIF                                                                          C:\MCC18\MPASM\P18CXXX.INC
                                             IFDEF __18F2510                                                                C:\MCC18\MPASM\P18CXXX.INC
                                                INCLUDE <P18F2510.INC>                                                      C:\MCC18\MPASM\P18CXXX.INC
                                             ENDIF                                                                          C:\MCC18\MPASM\P18CXXX.INC
                                             IFDEF __18F2520                                                                C:\MCC18\MPASM\P18CXXX.INC
                                                INCLUDE <P18F2520.INC>                                                      C:\MCC18\MPASM\P18CXXX.INC
                                             ENDIF                                                                          C:\MCC18\MPASM\P18CXXX.INC
                                             IFDEF __18F4510                                                                C:\MCC18\MPASM\P18CXXX.INC
                                                INCLUDE <P18F4510.INC>                                                      C:\MCC18\MPASM\P18CXXX.INC
                                             ENDIF                                                                          C:\MCC18\MPASM\P18CXXX.INC
                                             IFDEF __18F4520                                                                C:\MCC18\MPASM\P18CXXX.INC
                                                INCLUDE <P18F4520.INC>                                                      C:\MCC18\MPASM\P18CXXX.INC
                                             ENDIF                                                                          C:\MCC18\MPASM\P18CXXX.INC
                                             IFDEF __18F2455                                                                C:\MCC18\MPASM\P18CXXX.INC
                                                INCLUDE <P18F2455.INC>                                                      C:\MCC18\MPASM\P18CXXX.INC
                                             ENDIF                                                                          C:\MCC18\MPASM\P18CXXX.INC
                                             IFDEF __18F2550                                                                C:\MCC18\MPASM\P18CXXX.INC
                                                INCLUDE <P18F2550.INC>                                                      C:\MCC18\MPASM\P18CXXX.INC
                                             ENDIF                                                                          C:\MCC18\MPASM\P18CXXX.INC
                                             IFDEF __18F4455                                                                C:\MCC18\MPASM\P18CXXX.INC
                                                INCLUDE <P18F4455.INC>                                                      C:\MCC18\MPASM\P18CXXX.INC
                                             ENDIF                                                                          C:\MCC18\MPASM\P18CXXX.INC
                                             IFDEF __18F4550                                                                C:\MCC18\MPASM\P18CXXX.INC
                                                INCLUDE <P18F4550.INC>                                                      C:\MCC18\MPASM\P18CXXX.INC
                                             ENDIF                                                                          C:\MCC18\MPASM\P18CXXX.INC
                                             IFDEF __18F2410                                                                C:\MCC18\MPASM\P18CXXX.INC
                                                INCLUDE <P18F2410.INC>                                                      C:\MCC18\MPASM\P18CXXX.INC
                                             ENDIF                                                                          C:\MCC18\MPASM\P18CXXX.INC
                                             IFDEF __18F2420                                                                C:\MCC18\MPASM\P18CXXX.INC
                                                INCLUDE <P18F2420.INC>                                                      C:\MCC18\MPASM\P18CXXX.INC
                                             ENDIF                                                                          C:\MCC18\MPASM\P18CXXX.INC
                                             IFDEF __18F4410                                                                C:\MCC18\MPASM\P18CXXX.INC
                                                INCLUDE <P18F4410.INC>                                                      C:\MCC18\MPASM\P18CXXX.INC
                                             ENDIF                                                                          C:\MCC18\MPASM\P18CXXX.INC
                                             IFDEF __18F4420                                                                C:\MCC18\MPASM\P18CXXX.INC
                                                INCLUDE <P18F4420.INC>                                                      C:\MCC18\MPASM\P18CXXX.INC
                                             ENDIF                                                                          C:\MCC18\MPASM\P18CXXX.INC
                                             IFDEF __18F2480                                                                C:\MCC18\MPASM\P18CXXX.INC
                                                INCLUDE <P18F2480.INC>                                                      C:\MCC18\MPASM\P18CXXX.INC
                                             ENDIF                                                                          C:\MCC18\MPASM\P18CXXX.INC
                                             IFDEF __18F2580                                                                C:\MCC18\MPASM\P18CXXX.INC
                                                INCLUDE <P18F2580.INC>                                                      C:\MCC18\MPASM\P18CXXX.INC
                                             ENDIF                                                                          C:\MCC18\MPASM\P18CXXX.INC
                                             IFDEF __18F4480                                                                C:\MCC18\MPASM\P18CXXX.INC
                                                INCLUDE <P18F4480.INC>                                                      C:\MCC18\MPASM\P18CXXX.INC
                                             ENDIF                                                                          C:\MCC18\MPASM\P18CXXX.INC
                                             IFDEF __18F4580                                                                C:\MCC18\MPASM\P18CXXX.INC
                                                INCLUDE <P18F4580.INC>                                                      C:\MCC18\MPASM\P18CXXX.INC
                                             ENDIF                                                                          C:\MCC18\MPASM\P18CXXX.INC
                                             IFDEF __18F6310                                                                C:\MCC18\MPASM\P18CXXX.INC
                                                INCLUDE <P18F6310.INC>                                                      C:\MCC18\MPASM\P18CXXX.INC
                                             ENDIF                                                                          C:\MCC18\MPASM\P18CXXX.INC
                                             IFDEF __18F6390                                                                C:\MCC18\MPASM\P18CXXX.INC
                                                INCLUDE <P18F6390.INC>                                                      C:\MCC18\MPASM\P18CXXX.INC
                                             ENDIF                                                                          C:\MCC18\MPASM\P18CXXX.INC
                                             IFDEF __18F8310                                                                C:\MCC18\MPASM\P18CXXX.INC
                                                INCLUDE <P18F8310.INC>                                                      C:\MCC18\MPASM\P18CXXX.INC
                                             ENDIF                                                                          C:\MCC18\MPASM\P18CXXX.INC
                                             IFDEF __18F8390                                                                C:\MCC18\MPASM\P18CXXX.INC
                                                INCLUDE <P18F8390.INC>                                                      C:\MCC18\MPASM\P18CXXX.INC
                                             ENDIF                                                                          C:\MCC18\MPASM\P18CXXX.INC
                                             IFDEF __18F6627                                                                C:\MCC18\MPASM\P18CXXX.INC
                                                INCLUDE <P18F6627.INC>                                                      C:\MCC18\MPASM\P18CXXX.INC
                                             ENDIF                                                                          C:\MCC18\MPASM\P18CXXX.INC
                                             IFDEF __18F6722                                                                C:\MCC18\MPASM\P18CXXX.INC
                                                INCLUDE <P18F6722.INC>                                                      C:\MCC18\MPASM\P18CXXX.INC
                                             ENDIF                                                                          C:\MCC18\MPASM\P18CXXX.INC
                                             IFDEF __18F8627                                                                C:\MCC18\MPASM\P18CXXX.INC
                                                INCLUDE <P18F8627.INC>                                                      C:\MCC18\MPASM\P18CXXX.INC
                                             ENDIF                                                                          C:\MCC18\MPASM\P18CXXX.INC
                                             IFDEF __18F8722                                                                C:\MCC18\MPASM\P18CXXX.INC
                                                INCLUDE <P18F8722.INC>                                                      C:\MCC18\MPASM\P18CXXX.INC
                                             ENDIF                                                                          C:\MCC18\MPASM\P18CXXX.INC
                                             IFDEF __18F65J10                                                               C:\MCC18\MPASM\P18CXXX.INC
                                                INCLUDE <P18F65J10.INC>                                                     C:\MCC18\MPASM\P18CXXX.INC
                                             ENDIF                                                                          C:\MCC18\MPASM\P18CXXX.INC
                                             IFDEF __18F65J15                                                               C:\MCC18\MPASM\P18CXXX.INC
                                                INCLUDE <P18F65J15.INC>                                                     C:\MCC18\MPASM\P18CXXX.INC
                                             ENDIF                                                                          C:\MCC18\MPASM\P18CXXX.INC
                                             IFDEF __18F66J10                                                               C:\MCC18\MPASM\P18CXXX.INC
                                                INCLUDE <P18F66J10.INC>                                                     C:\MCC18\MPASM\P18CXXX.INC
                                             ENDIF                                                                          C:\MCC18\MPASM\P18CXXX.INC
                                             IFDEF __18F66J15                                                               C:\MCC18\MPASM\P18CXXX.INC
                                                INCLUDE <P18F66J15.INC>                                                     C:\MCC18\MPASM\P18CXXX.INC
                                             ENDIF                                                                          C:\MCC18\MPASM\P18CXXX.INC
                                             IFDEF __18F67J10                                                               C:\MCC18\MPASM\P18CXXX.INC
                                                INCLUDE <P18F67J10.INC>                                                     C:\MCC18\MPASM\P18CXXX.INC
                                             ENDIF                                                                          C:\MCC18\MPASM\P18CXXX.INC
                                             IFDEF __18F85J10                                                               C:\MCC18\MPASM\P18CXXX.INC
                                                INCLUDE <P18F85J10.INC>                                                     C:\MCC18\MPASM\P18CXXX.INC
                                             ENDIF                                                                          C:\MCC18\MPASM\P18CXXX.INC
                                             IFDEF __18F85J15                                                               C:\MCC18\MPASM\P18CXXX.INC
                                                INCLUDE <P18F85J15.INC>                                                     C:\MCC18\MPASM\P18CXXX.INC
                                             ENDIF                                                                          C:\MCC18\MPASM\P18CXXX.INC
                                             IFDEF __18F86J10                                                               C:\MCC18\MPASM\P18CXXX.INC
                                                INCLUDE <P18F86J10.INC>                                                     C:\MCC18\MPASM\P18CXXX.INC
                                             ENDIF                                                                          C:\MCC18\MPASM\P18CXXX.INC
                                             IFDEF __18F86J15                                                               C:\MCC18\MPASM\P18CXXX.INC
                                                INCLUDE <P18F86J15.INC>                                                     C:\MCC18\MPASM\P18CXXX.INC
                                             ENDIF                                                                          C:\MCC18\MPASM\P18CXXX.INC
                                             IFDEF __18F87J10                                                               C:\MCC18\MPASM\P18CXXX.INC
                                                INCLUDE <P18F87J10.INC>                                                     C:\MCC18\MPASM\P18CXXX.INC
                                             ENDIF                                                                          C:\MCC18\MPASM\P18CXXX.INC
                                             IFDEF __18F6527                                                                C:\MCC18\MPASM\P18CXXX.INC
                                                INCLUDE <P18F6527.INC>                                                      C:\MCC18\MPASM\P18CXXX.INC
                                             ENDIF                                                                          C:\MCC18\MPASM\P18CXXX.INC
                                             IFDEF __18F6622                                                                C:\MCC18\MPASM\P18CXXX.INC
                                                INCLUDE <P18F6622.INC>                                                      C:\MCC18\MPASM\P18CXXX.INC
                                             ENDIF                                                                          C:\MCC18\MPASM\P18CXXX.INC
                                             IFDEF __18F8527                                                                C:\MCC18\MPASM\P18CXXX.INC
                                                INCLUDE <P18F8527.INC>                                                      C:\MCC18\MPASM\P18CXXX.INC
                                             ENDIF                                                                          C:\MCC18\MPASM\P18CXXX.INC
                                             IFDEF __18F8622                                                                C:\MCC18\MPASM\P18CXXX.INC
                                                INCLUDE <P18F8622.INC>                                                      C:\MCC18\MPASM\P18CXXX.INC
                                             ENDIF                                                                          C:\MCC18\MPASM\P18CXXX.INC
                                             IFDEF __18F24J10                                                               C:\MCC18\MPASM\P18CXXX.INC
                                                INCLUDE <P18F24J10.INC>                                                     C:\MCC18\MPASM\P18CXXX.INC
                                             ENDIF                                                                          C:\MCC18\MPASM\P18CXXX.INC
                                             IFDEF __18F25J10                                                               C:\MCC18\MPASM\P18CXXX.INC
                                                INCLUDE <P18F25J10.INC>                                                     C:\MCC18\MPASM\P18CXXX.INC
                                             ENDIF                                                                          C:\MCC18\MPASM\P18CXXX.INC
                                             IFDEF __18F44J10                                                               C:\MCC18\MPASM\P18CXXX.INC
                                                INCLUDE <P18F44J10.INC>                                                     C:\MCC18\MPASM\P18CXXX.INC
                                             ENDIF                                                                          C:\MCC18\MPASM\P18CXXX.INC
                                             IFDEF __18F45J10                                                               C:\MCC18\MPASM\P18CXXX.INC
                                                INCLUDE <P18F45J10.INC>                                                     C:\MCC18\MPASM\P18CXXX.INC
                                             ENDIF                                                                          C:\MCC18\MPASM\P18CXXX.INC
                                             IFDEF __18F2221                                                                C:\MCC18\MPASM\P18CXXX.INC
                                                INCLUDE <P18F2221.INC>                                                      C:\MCC18\MPASM\P18CXXX.INC
                                             ENDIF                                                                          C:\MCC18\MPASM\P18CXXX.INC
                                             IFDEF __18F2321                                                                C:\MCC18\MPASM\P18CXXX.INC
                                                INCLUDE <P18F2321.INC>                                                      C:\MCC18\MPASM\P18CXXX.INC
                                             ENDIF                                                                          C:\MCC18\MPASM\P18CXXX.INC
                                             IFDEF __18F4221                                                                C:\MCC18\MPASM\P18CXXX.INC
                                                INCLUDE <P18F4221.INC>                                                      C:\MCC18\MPASM\P18CXXX.INC
                                             ENDIF                                                                          C:\MCC18\MPASM\P18CXXX.INC
                                             IFDEF __18F4321                                                                C:\MCC18\MPASM\P18CXXX.INC
                                                INCLUDE <P18F4321.INC>                                                      C:\MCC18\MPASM\P18CXXX.INC
                                             ENDIF                                                                          C:\MCC18\MPASM\P18CXXX.INC
                                             IFDEF __18F97J60                                                               C:\MCC18\MPASM\P18CXXX.INC
                                                INCLUDE <P18F97J60.INC>                                                     C:\MCC18\MPASM\P18CXXX.INC
                                             ENDIF                                                                          C:\MCC18\MPASM\P18CXXX.INC
                                             IFDEF __18F96J65                                                               C:\MCC18\MPASM\P18CXXX.INC
                                                INCLUDE <P18F96J65.INC>                                                     C:\MCC18\MPASM\P18CXXX.INC
                                             ENDIF                                                                          C:\MCC18\MPASM\P18CXXX.INC
                                             IFDEF __18F96J60                                                               C:\MCC18\MPASM\P18CXXX.INC
                                                INCLUDE <P18F96J60.INC>                                                     C:\MCC18\MPASM\P18CXXX.INC
                                             ENDIF                                                                          C:\MCC18\MPASM\P18CXXX.INC
                                             IFDEF __18F87J60                                                               C:\MCC18\MPASM\P18CXXX.INC
                                                INCLUDE <P18F87J60.INC>                                                     C:\MCC18\MPASM\P18CXXX.INC
                                             ENDIF                                                                          C:\MCC18\MPASM\P18CXXX.INC
                                             IFDEF __18F86J65                                                               C:\MCC18\MPASM\P18CXXX.INC
                                                INCLUDE <P18F86J65.INC>                                                     C:\MCC18\MPASM\P18CXXX.INC
                                             ENDIF                                                                          C:\MCC18\MPASM\P18CXXX.INC
                                             IFDEF __18F86J60                                                               C:\MCC18\MPASM\P18CXXX.INC
                                                INCLUDE <P18F86J60.INC>                                                     C:\MCC18\MPASM\P18CXXX.INC
                                             ENDIF                                                                          C:\MCC18\MPASM\P18CXXX.INC
                                             IFDEF __18F67J60                                                               C:\MCC18\MPASM\P18CXXX.INC
                                                INCLUDE <P18F67J60.INC>                                                     C:\MCC18\MPASM\P18CXXX.INC
                                             ENDIF                                                                          C:\MCC18\MPASM\P18CXXX.INC
                                             IFDEF __18F66J65                                                               C:\MCC18\MPASM\P18CXXX.INC
                                                INCLUDE <P18F66J65.INC>                                                     C:\MCC18\MPASM\P18CXXX.INC
                                             ENDIF                                                                          C:\MCC18\MPASM\P18CXXX.INC
                                             IFDEF __18F66J60                                                               C:\MCC18\MPASM\P18CXXX.INC
                                                INCLUDE <P18F66J60.INC>                                                     C:\MCC18\MPASM\P18CXXX.INC
                                             ENDIF                                                                          C:\MCC18\MPASM\P18CXXX.INC
                                             IFDEF __18F1331                                                                C:\MCC18\MPASM\P18CXXX.INC
                                                INCLUDE <P18F1331.INC>                                                      C:\MCC18\MPASM\P18CXXX.INC
                                             ENDIF                                                                          C:\MCC18\MPASM\P18CXXX.INC
                                             IFDEF __18F1330                                                                C:\MCC18\MPASM\P18CXXX.INC
                                                INCLUDE <P18F1330.INC>                                                      C:\MCC18\MPASM\P18CXXX.INC
                                             ENDIF                                                                          C:\MCC18\MPASM\P18CXXX.INC
                                             IFDEF __18F1231                                                                C:\MCC18\MPASM\P18CXXX.INC
                                                INCLUDE <P18F1231.INC>                                                      C:\MCC18\MPASM\P18CXXX.INC
                                             ENDIF                                                                          C:\MCC18\MPASM\P18CXXX.INC
                                             IFDEF __18F1230                                                                C:\MCC18\MPASM\P18CXXX.INC
                                                INCLUDE <P18F1230.INC>                                                      C:\MCC18\MPASM\P18CXXX.INC
                                             ENDIF                                                                          C:\MCC18\MPASM\P18CXXX.INC
                                             IFDEF __18F4450                                                                C:\MCC18\MPASM\P18CXXX.INC
                                                INCLUDE <P18F4450.INC>                                                      C:\MCC18\MPASM\P18CXXX.INC
                                             ENDIF                                                                          C:\MCC18\MPASM\P18CXXX.INC
                                             IFDEF __18F2450                                                                C:\MCC18\MPASM\P18CXXX.INC
                                                INCLUDE <P18F2450.INC>                                                      C:\MCC18\MPASM\P18CXXX.INC
                                             ENDIF                                                                          C:\MCC18\MPASM\P18CXXX.INC
                                             IFDEF __18F4523                                                                C:\MCC18\MPASM\P18CXXX.INC
                                                INCLUDE <P18F4523.INC>                                                      C:\MCC18\MPASM\P18CXXX.INC
                                             ENDIF                                                                          C:\MCC18\MPASM\P18CXXX.INC
                                             IFDEF __18F4423                                                                C:\MCC18\MPASM\P18CXXX.INC
                                                INCLUDE <P18F4423.INC>                                                      C:\MCC18\MPASM\P18CXXX.INC
                                             ENDIF                                                                          C:\MCC18\MPASM\P18CXXX.INC
                                             IFDEF __18F2523                                                                C:\MCC18\MPASM\P18CXXX.INC
                                                INCLUDE <P18F2523.INC>                                                      C:\MCC18\MPASM\P18CXXX.INC
                                             ENDIF                                                                          C:\MCC18\MPASM\P18CXXX.INC
                                             IFDEF __18F2423                                                                C:\MCC18\MPASM\P18CXXX.INC
                                                INCLUDE <P18F2423.INC>                                                      C:\MCC18\MPASM\P18CXXX.INC
                                             ENDIF                                                                          C:\MCC18\MPASM\P18CXXX.INC
                                             IFDEF __18F85J90                                                               C:\MCC18\MPASM\P18CXXX.INC
                                                INCLUDE <P18F85J90.INC>                                                     C:\MCC18\MPASM\P18CXXX.INC
                                             ENDIF                                                                          C:\MCC18\MPASM\P18CXXX.INC
                                             IFDEF __18F84J90                                                               C:\MCC18\MPASM\P18CXXX.INC
                                                INCLUDE <P18F84J90.INC>                                                     C:\MCC18\MPASM\P18CXXX.INC
                                             ENDIF                                                                          C:\MCC18\MPASM\P18CXXX.INC
                                             IFDEF __18F83J90                                                               C:\MCC18\MPASM\P18CXXX.INC
                                                INCLUDE <P18F83J90.INC>                                                     C:\MCC18\MPASM\P18CXXX.INC
                                             ENDIF                                                                          C:\MCC18\MPASM\P18CXXX.INC
                                             IFDEF __18F65J90                                                               C:\MCC18\MPASM\P18CXXX.INC
                                                INCLUDE <P18F65J90.INC>                                                     C:\MCC18\MPASM\P18CXXX.INC
                                             ENDIF                                                                          C:\MCC18\MPASM\P18CXXX.INC
                                             IFDEF __18F64J90                                                               C:\MCC18\MPASM\P18CXXX.INC
                                                INCLUDE <P18F64J90.INC>                                                     C:\MCC18\MPASM\P18CXXX.INC
                                             ENDIF                                                                          C:\MCC18\MPASM\P18CXXX.INC
                                             IFDEF __18F63J90                                                               C:\MCC18\MPASM\P18CXXX.INC
                                                INCLUDE <P18F63J90.INC>                                                     C:\MCC18\MPASM\P18CXXX.INC
                                             ENDIF                                                                          C:\MCC18\MPASM\P18CXXX.INC
                                             IFDEF __18F45K20                                                               C:\MCC18\MPASM\P18CXXX.INC
                                                INCLUDE <P18F45K20.INC>                                                     C:\MCC18\MPASM\P18CXXX.INC
                                             ENDIF                                                                          C:\MCC18\MPASM\P18CXXX.INC
                                             IFDEF __18F25K20                                                               C:\MCC18\MPASM\P18CXXX.INC
                                                INCLUDE <P18F25K20.INC>                                                     C:\MCC18\MPASM\P18CXXX.INC
                                             ENDIF                                                                          C:\MCC18\MPASM\P18CXXX.INC
                                             IFDEF __18F4685                                                                C:\MCC18\MPASM\P18CXXX.INC
                                                INCLUDE <P18F4685.INC>                                                      C:\MCC18\MPASM\P18CXXX.INC
                                             ENDIF                                                                          C:\MCC18\MPASM\P18CXXX.INC
                                             IFDEF __18F2685                                                                C:\MCC18\MPASM\P18CXXX.INC
                                                INCLUDE <P18F2685.INC>                                                      C:\MCC18\MPASM\P18CXXX.INC
                                             ENDIF                                                                          C:\MCC18\MPASM\P18CXXX.INC
                                             IFDEF __18F85J11                                                               C:\MCC18\MPASM\P18CXXX.INC
                                                INCLUDE <P18F85J11.INC>                                                     C:\MCC18\MPASM\P18CXXX.INC
                                             ENDIF                                                                          C:\MCC18\MPASM\P18CXXX.INC
                                             IFDEF __18F84J11                                                               C:\MCC18\MPASM\P18CXXX.INC
                                                INCLUDE <P18F84J11.INC>                                                     C:\MCC18\MPASM\P18CXXX.INC
                                             ENDIF                                                                          C:\MCC18\MPASM\P18CXXX.INC
                                             IFDEF __18F83J11                                                               C:\MCC18\MPASM\P18CXXX.INC
                                                INCLUDE <P18F83J11.INC>                                                     C:\MCC18\MPASM\P18CXXX.INC
                                             ENDIF                                                                          C:\MCC18\MPASM\P18CXXX.INC
                                             IFDEF __18F65J11                                                               C:\MCC18\MPASM\P18CXXX.INC
                                                INCLUDE <P18F65J11.INC>                                                     C:\MCC18\MPASM\P18CXXX.INC
                                             ENDIF                                                                          C:\MCC18\MPASM\P18CXXX.INC
                                             IFDEF __18F64J11                                                               C:\MCC18\MPASM\P18CXXX.INC
                                                INCLUDE <P18F64J11.INC>                                                     C:\MCC18\MPASM\P18CXXX.INC
                                             ENDIF                                                                          C:\MCC18\MPASM\P18CXXX.INC
                                             IFDEF __18F63J11                                                               C:\MCC18\MPASM\P18CXXX.INC
                                                INCLUDE <P18F63J11.INC>                                                     C:\MCC18\MPASM\P18CXXX.INC
                                             ENDIF                                                                          C:\MCC18\MPASM\P18CXXX.INC
                                             IFDEF __18F4682                                                                C:\MCC18\MPASM\P18CXXX.INC
                                                INCLUDE <P18F4682.INC>                                                      C:\MCC18\MPASM\P18CXXX.INC
                                             ENDIF                                                                          C:\MCC18\MPASM\P18CXXX.INC
                                             IFDEF __18F2682                                                                C:\MCC18\MPASM\P18CXXX.INC
                                                INCLUDE <P18F2682.INC>                                                      C:\MCC18\MPASM\P18CXXX.INC
                                             ENDIF                                                                          C:\MCC18\MPASM\P18CXXX.INC
                                             IFDEF __18F87J50                                                               C:\MCC18\MPASM\P18CXXX.INC
                                                INCLUDE <P18F87J50.INC>                                                     C:\MCC18\MPASM\P18CXXX.INC
                                             ENDIF                                                                          C:\MCC18\MPASM\P18CXXX.INC
                                             IFDEF __18F86J55                                                               C:\MCC18\MPASM\P18CXXX.INC
                                                INCLUDE <P18F86J55.INC>                                                     C:\MCC18\MPASM\P18CXXX.INC
                                             ENDIF                                                                          C:\MCC18\MPASM\P18CXXX.INC
                                             IFDEF __18F86J50                                                               C:\MCC18\MPASM\P18CXXX.INC
                                                INCLUDE <P18F86J50.INC>                                                     C:\MCC18\MPASM\P18CXXX.INC
                                             ENDIF                                                                          C:\MCC18\MPASM\P18CXXX.INC
                                             IFDEF __18F85J50                                                               C:\MCC18\MPASM\P18CXXX.INC
                                                INCLUDE <P18F85J50.INC>                                                     C:\MCC18\MPASM\P18CXXX.INC
                                             ENDIF                                                                          C:\MCC18\MPASM\P18CXXX.INC
                                             IFDEF __18F67J50                                                               C:\MCC18\MPASM\P18CXXX.INC
                                                INCLUDE <P18F67J50.INC>                                                     C:\MCC18\MPASM\P18CXXX.INC
                                             ENDIF                                                                          C:\MCC18\MPASM\P18CXXX.INC
                                             IFDEF __18F66J55                                                               C:\MCC18\MPASM\P18CXXX.INC
                                                INCLUDE <P18F66J55.INC>                                                     C:\MCC18\MPASM\P18CXXX.INC
                                             ENDIF                                                                          C:\MCC18\MPASM\P18CXXX.INC
                                             IFDEF __18F66J50                                                               C:\MCC18\MPASM\P18CXXX.INC
                                                INCLUDE <P18F66J50.INC>                                                     C:\MCC18\MPASM\P18CXXX.INC
                                             ENDIF                                                                          C:\MCC18\MPASM\P18CXXX.INC
                                             IFDEF __18F65J50                                                               C:\MCC18\MPASM\P18CXXX.INC
                                                INCLUDE <P18F65J50.INC>                                                     C:\MCC18\MPASM\P18CXXX.INC
                                             ENDIF                                                                          C:\MCC18\MPASM\P18CXXX.INC
                                             IFDEF __18F87J11                                                               C:\MCC18\MPASM\P18CXXX.INC
                                                INCLUDE <P18F87J11.INC>                                                     C:\MCC18\MPASM\P18CXXX.INC
                                             ENDIF                                                                          C:\MCC18\MPASM\P18CXXX.INC
                                             IFDEF __18F86J16                                                               C:\MCC18\MPASM\P18CXXX.INC
                                                INCLUDE <P18F86J16.INC>                                                     C:\MCC18\MPASM\P18CXXX.INC
                                             ENDIF                                                                          C:\MCC18\MPASM\P18CXXX.INC
                                             IFDEF __18F86J11                                                               C:\MCC18\MPASM\P18CXXX.INC
                                                INCLUDE <P18F86J11.INC>                                                     C:\MCC18\MPASM\P18CXXX.INC
                                             ENDIF                                                                          C:\MCC18\MPASM\P18CXXX.INC
                                             IFDEF __18F67J11                                                               C:\MCC18\MPASM\P18CXXX.INC
                                                INCLUDE <P18F67J11.INC>                                                     C:\MCC18\MPASM\P18CXXX.INC
                                             ENDIF                                                                          C:\MCC18\MPASM\P18CXXX.INC
                                             IFDEF __18F66J16                                                               C:\MCC18\MPASM\P18CXXX.INC
                                                INCLUDE <P18F66J16.INC>                                                     C:\MCC18\MPASM\P18CXXX.INC
                                             ENDIF                                                                          C:\MCC18\MPASM\P18CXXX.INC
                                             IFDEF __18F66J11                                                               C:\MCC18\MPASM\P18CXXX.INC
                                                INCLUDE <P18F66J11.INC>                                                     C:\MCC18\MPASM\P18CXXX.INC
                                             ENDIF                                                                          C:\MCC18\MPASM\P18CXXX.INC
                                             IFDEF __18F44K20                                                               C:\MCC18\MPASM\P18CXXX.INC
                                                INCLUDE <P18F44K20.INC>                                                     C:\MCC18\MPASM\P18CXXX.INC
                                             ENDIF                                                                          C:\MCC18\MPASM\P18CXXX.INC
                                             IFDEF __18F24K20                                                               C:\MCC18\MPASM\P18CXXX.INC
                                                INCLUDE <P18F24K20.INC>                                                     C:\MCC18\MPASM\P18CXXX.INC
                                             ENDIF                                                                          C:\MCC18\MPASM\P18CXXX.INC
                                             IFDEF __18F2458                                                                C:\MCC18\MPASM\P18CXXX.INC
                                                INCLUDE <P18F2458.INC>                                                      C:\MCC18\MPASM\P18CXXX.INC
                                             ENDIF                                                                          C:\MCC18\MPASM\P18CXXX.INC
                                             IFDEF __18F2553                                                                C:\MCC18\MPASM\P18CXXX.INC
                                                INCLUDE <P18F2553.INC>                                                      C:\MCC18\MPASM\P18CXXX.INC
                                             ENDIF                                                                          C:\MCC18\MPASM\P18CXXX.INC
                                             IFDEF __18F4458                                                                C:\MCC18\MPASM\P18CXXX.INC
                                                INCLUDE <P18F4458.INC>                                                      C:\MCC18\MPASM\P18CXXX.INC
                                             ENDIF                                                                          C:\MCC18\MPASM\P18CXXX.INC
                                             IFDEF __18F4553                                                                C:\MCC18\MPASM\P18CXXX.INC
                                                INCLUDE <P18F4553.INC>                                                      C:\MCC18\MPASM\P18CXXX.INC
                                             ENDIF                                                                          C:\MCC18\MPASM\P18CXXX.INC
                                                                                                                            C:\MCC18\MPASM\P18CXXX.INC
                                                                                                                            C:\MCC18\SRC\TRADIT~1\MATH\fxm1616s.asm
                                           	include <CMATH18.INC>		; Math library definitions                               C:\MCC18\SRC\TRADIT~1\MATH\fxm1616s.asm
                                           ;	RCS Header $Id: cmath18.inc,v 1.3 2006/01/12 23:16:38 rhinec Exp $             C:\MCC18\SRC\TRADIT~1\MATH\CMATH18.INC
                                                                                                                            C:\MCC18\SRC\TRADIT~1\MATH\CMATH18.INC
                                           ;	$Revision: 1.3 $                                                               C:\MCC18\SRC\TRADIT~1\MATH\CMATH18.INC
                                                                                                                            C:\MCC18\SRC\TRADIT~1\MATH\CMATH18.INC
                                               LIST                                                                         C:\MCC18\SRC\TRADIT~1\MATH\CMATH18.INC
                                           ; CMATH18.INC  v1.0  Microchip Technology, Inc. / F.J. Testa                     C:\MCC18\SRC\TRADIT~1\MATH\CMATH18.INC
                                                   LIST                                                                     C:\MCC18\SRC\TRADIT~1\MATH\CMATH18.INC
                                                                                                                            C:\MCC18\SRC\TRADIT~1\MATH\fxm1616s.asm
                                           	include <AARG.INC>		; AARG declarations                                         C:\MCC18\SRC\TRADIT~1\MATH\fxm1616s.asm
                                           ;	RCS Header $Id: aarg.inc,v 1.3 2006/01/12 23:16:38 rhinec Exp $                C:\MCC18\SRC\TRADIT~1\MATH\AARG.INC
                                                                                                                            C:\MCC18\SRC\TRADIT~1\MATH\AARG.INC
                                           ;       CMATH18 DATA DECLARATION FILE                                            C:\MCC18\SRC\TRADIT~1\MATH\AARG.INC
                                                                                                                            C:\MCC18\SRC\TRADIT~1\MATH\AARG.INC
                                           	EXTERN	__AARGB0, __AARGB1, __AARGB2, __AARGB3                                   C:\MCC18\SRC\TRADIT~1\MATH\AARG.INC
                                                   EXTERN  __AARGB4, __AARGB5, __AARGB6, __AARGB7                           C:\MCC18\SRC\TRADIT~1\MATH\AARG.INC
                                           	EXTERN  __AEXP                                                                  C:\MCC18\SRC\TRADIT~1\MATH\AARG.INC
                                           	EXTERN  __REMB3, __REMB2, __REMB1, __REMB0                                      C:\MCC18\SRC\TRADIT~1\MATH\AARG.INC
                                           	                                                                                C:\MCC18\SRC\TRADIT~1\MATH\fxm1616s.asm
                                           	include <BARG.INC>		; BARG declarations                                         C:\MCC18\SRC\TRADIT~1\MATH\fxm1616s.asm
                                           ;	RCS Header $Id: barg.inc,v 1.3 2006/01/12 23:16:38 rhinec Exp $                C:\MCC18\SRC\TRADIT~1\MATH\BARG.INC
                                                                                                                            C:\MCC18\SRC\TRADIT~1\MATH\BARG.INC
                                           ;       CMATH18 DATA DECLARATION FILE                                            C:\MCC18\SRC\TRADIT~1\MATH\BARG.INC
                                                                                                                            C:\MCC18\SRC\TRADIT~1\MATH\BARG.INC
                                                   EXTERN  __BARGB3, __BARGB2, __BARGB1, __BARGB0                           C:\MCC18\SRC\TRADIT~1\MATH\BARG.INC
                                                   EXTERN  __BEXP                                                           C:\MCC18\SRC\TRADIT~1\MATH\BARG.INC
                                                                                                                            C:\MCC18\SRC\TRADIT~1\MATH\fxm1616s.asm
                                           	include <TEMPARG.INC>		; TEMPARG declarations                                   C:\MCC18\SRC\TRADIT~1\MATH\fxm1616s.asm
                                           ;	RCS Header $Id: temparg.inc,v 1.3 2006/01/12 23:16:38 rhinec Exp $             C:\MCC18\SRC\TRADIT~1\MATH\TEMPARG.INC
                                                                                                                            C:\MCC18\SRC\TRADIT~1\MATH\TEMPARG.INC
                                           ;       CMATH18 DATA DECLARATION FILE                                            C:\MCC18\SRC\TRADIT~1\MATH\TEMPARG.INC
                                                                                                                            C:\MCC18\SRC\TRADIT~1\MATH\TEMPARG.INC
                                                   EXTERN  __TEMPB3, __TEMPB2, __TEMPB1, __TEMPB0, __TEMP                   C:\MCC18\SRC\TRADIT~1\MATH\TEMPARG.INC
                                                                                                                            C:\MCC18\SRC\TRADIT~1\MATH\fxm1616s.asm
                                           ;********************************************************************************************** C:\MCC18\SRC\TRADIT~1\MATH\fxm1616s.asm
                                           ;********************************************************************************************** C:\MCC18\SRC\TRADIT~1\MATH\fxm1616s.asm
                                                                                                                            C:\MCC18\SRC\TRADIT~1\MATH\fxm1616s.asm
                                           ;       16x16 Bit Signed Fixed Point Multiply 16 x 16 -> 32                      C:\MCC18\SRC\TRADIT~1\MATH\fxm1616s.asm
                                                                                                                            C:\MCC18\SRC\TRADIT~1\MATH\fxm1616s.asm
                                           ;       Input:  16 bit signed fixed point multiplicand in AARGB0, AARGB1         C:\MCC18\SRC\TRADIT~1\MATH\fxm1616s.asm
                                           ;               16 bit signed fixed point multiplier in BARGB0, BARGB1           C:\MCC18\SRC\TRADIT~1\MATH\fxm1616s.asm
                                                                                                                            C:\MCC18\SRC\TRADIT~1\MATH\fxm1616s.asm
                                           ;       Use:    CALL    FXM1616S                                                 C:\MCC18\SRC\TRADIT~1\MATH\fxm1616s.asm
                                                                                                                            C:\MCC18\SRC\TRADIT~1\MATH\fxm1616s.asm
                                           ;       Output: 32 bit signed fixed point product in AARGB0, AARGB1,             C:\MCC18\SRC\TRADIT~1\MATH\fxm1616s.asm
                                           ;               AARGB2, AARGB3                                                   C:\MCC18\SRC\TRADIT~1\MATH\fxm1616s.asm
                                                                                                                            C:\MCC18\SRC\TRADIT~1\MATH\fxm1616s.asm
                                           ;       Result: AARG  <--  AARG * BARG                                           C:\MCC18\SRC\TRADIT~1\MATH\fxm1616s.asm
                                                                                                                            C:\MCC18\SRC\TRADIT~1\MATH\fxm1616s.asm
                                           ;       Max Timing:     39 clks                                                  C:\MCC18\SRC\TRADIT~1\MATH\fxm1616s.asm
                                                                                                                            C:\MCC18\SRC\TRADIT~1\MATH\fxm1616s.asm
                                           ;       Min Timing:     31 clks                                                  C:\MCC18\SRC\TRADIT~1\MATH\fxm1616s.asm
                                                                                                                            C:\MCC18\SRC\TRADIT~1\MATH\fxm1616s.asm
                                           ;       PM: 38              DM: 8                                                C:\MCC18\SRC\TRADIT~1\MATH\fxm1616s.asm
                                                                                                                            C:\MCC18\SRC\TRADIT~1\MATH\fxm1616s.asm
                                           PROG	CODE                                                                        C:\MCC18\SRC\TRADIT~1\MATH\fxm1616s.asm
                                                                                                                            C:\MCC18\SRC\TRADIT~1\MATH\fxm1616s.asm
                                           FXM1616S                                                                         C:\MCC18\SRC\TRADIT~1\MATH\fxm1616s.asm
                                           		GLOBAL	FXM1616S                                                                C:\MCC18\SRC\TRADIT~1\MATH\fxm1616s.asm
                                                                                                                            C:\MCC18\SRC\TRADIT~1\MATH\fxm1616s.asm
00175a   c009     MOVFF     0x9,0x13       		MOVFF	__AARGB0,__TEMPB0                                                        C:\MCC18\SRC\TRADIT~1\MATH\fxm1616s.asm
00175c   f013                                                                                                               
00175e   c008     MOVFF     0x8,0x12       		MOVFF	__AARGB1,__TEMPB1	                                                       C:\MCC18\SRC\TRADIT~1\MATH\fxm1616s.asm
001760   f012                                                                                                               
                                                                                                                            C:\MCC18\SRC\TRADIT~1\MATH\fxm1616s.asm
001762   5008     MOVF      0x8,0x0,0x0    		MOVF	__AARGB1,W                                                                C:\MCC18\SRC\TRADIT~1\MATH\fxm1616s.asm
001764   020d     MULWF     0xd,0x0        		MULWF	__BARGB1                                                                 C:\MCC18\SRC\TRADIT~1\MATH\fxm1616s.asm
001766   cff4     MOVFF     0xff4,0x7      		MOVFF	PRODH,__AARGB2                                                           C:\MCC18\SRC\TRADIT~1\MATH\fxm1616s.asm
001768   f007                                                                                                               
00176a   cff3     MOVFF     0xff3,0x6      		MOVFF	PRODL,__AARGB3                                                           C:\MCC18\SRC\TRADIT~1\MATH\fxm1616s.asm
00176c   f006                                                                                                               
                                           		                                                                               C:\MCC18\SRC\TRADIT~1\MATH\fxm1616s.asm
00176e   5009     MOVF      0x9,0x0,0x0    		MOVF	__AARGB0,W                                                                C:\MCC18\SRC\TRADIT~1\MATH\fxm1616s.asm
001770   020e     MULWF     0xe,0x0        		MULWF	__BARGB0                                                                 C:\MCC18\SRC\TRADIT~1\MATH\fxm1616s.asm
001772   cff4     MOVFF     0xff4,0x9      		MOVFF	PRODH,__AARGB0                                                           C:\MCC18\SRC\TRADIT~1\MATH\fxm1616s.asm
001774   f009                                                                                                               
001776   cff3     MOVFF     0xff3,0x8      		MOVFF	PRODL,__AARGB1                                                           C:\MCC18\SRC\TRADIT~1\MATH\fxm1616s.asm
001778   f008                                                                                                               
                                                                                                                            C:\MCC18\SRC\TRADIT~1\MATH\fxm1616s.asm
00177a   020d     MULWF     0xd,0x0        		MULWF	__BARGB1                                                                 C:\MCC18\SRC\TRADIT~1\MATH\fxm1616s.asm
00177c   50f3     MOVF      0xf3,0x0,0x0   		MOVF	PRODL,W                                                                   C:\MCC18\SRC\TRADIT~1\MATH\fxm1616s.asm
00177e   2607     ADDWF     0x7,0x1,0x0    		ADDWF	__AARGB2,F                                                               C:\MCC18\SRC\TRADIT~1\MATH\fxm1616s.asm
001780   50f4     MOVF      0xf4,0x0,0x0   		MOVF	PRODH,W                                                                   C:\MCC18\SRC\TRADIT~1\MATH\fxm1616s.asm
001782   2208     ADDWFC    0x8,0x1,0x0    		ADDWFC	__AARGB1,F                                                              C:\MCC18\SRC\TRADIT~1\MATH\fxm1616s.asm
001784   6ae8     CLRF      0xe8,0x0       		CLRF	WREG                                                                      C:\MCC18\SRC\TRADIT~1\MATH\fxm1616s.asm
001786   2209     ADDWFC    0x9,0x1,0x0    		ADDWFC	__AARGB0,F                                                              C:\MCC18\SRC\TRADIT~1\MATH\fxm1616s.asm
                                                                                                                            C:\MCC18\SRC\TRADIT~1\MATH\fxm1616s.asm
001788   5012     MOVF      0x12,0x0,0x0   		MOVF	__TEMPB1,W                                                                C:\MCC18\SRC\TRADIT~1\MATH\fxm1616s.asm
00178a   020e     MULWF     0xe,0x0        		MULWF	__BARGB0                                                                 C:\MCC18\SRC\TRADIT~1\MATH\fxm1616s.asm
00178c   50f3     MOVF      0xf3,0x0,0x0   		MOVF	PRODL,W                                                                   C:\MCC18\SRC\TRADIT~1\MATH\fxm1616s.asm
00178e   2607     ADDWF     0x7,0x1,0x0    		ADDWF	__AARGB2,F                                                               C:\MCC18\SRC\TRADIT~1\MATH\fxm1616s.asm
001790   50f4     MOVF      0xf4,0x0,0x0   		MOVF	PRODH,W                                                                   C:\MCC18\SRC\TRADIT~1\MATH\fxm1616s.asm
001792   2208     ADDWFC    0x8,0x1,0x0    		ADDWFC	__AARGB1,F                                                              C:\MCC18\SRC\TRADIT~1\MATH\fxm1616s.asm
001794   6ae8     CLRF      0xe8,0x0       		CLRF	WREG                                                                      C:\MCC18\SRC\TRADIT~1\MATH\fxm1616s.asm
001796   2209     ADDWFC    0x9,0x1,0x0    		ADDWFC	__AARGB0,F                                                              C:\MCC18\SRC\TRADIT~1\MATH\fxm1616s.asm
                                                                                                                            C:\MCC18\SRC\TRADIT~1\MATH\fxm1616s.asm
001798   ae0e     BTFSS     0xe,0x7,0x0    		BTFSS	__BARGB0,MSB                                                             C:\MCC18\SRC\TRADIT~1\MATH\fxm1616s.asm
00179a   efd3     GOTO      0x17a6         		GOTO	TSIGN1616A                                                                C:\MCC18\SRC\TRADIT~1\MATH\fxm1616s.asm
00179c   f00b                                                                                                               
00179e   5012     MOVF      0x12,0x0,0x0   		MOVF	__TEMPB1,W                                                                C:\MCC18\SRC\TRADIT~1\MATH\fxm1616s.asm
0017a0   5e08     SUBWF     0x8,0x1,0x0    		SUBWF	__AARGB1,F                                                               C:\MCC18\SRC\TRADIT~1\MATH\fxm1616s.asm
0017a2   5013     MOVF      0x13,0x0,0x0   		MOVF	__TEMPB0,W                                                                C:\MCC18\SRC\TRADIT~1\MATH\fxm1616s.asm
0017a4   5a09     SUBWFB    0x9,0x1,0x0    		SUBWFB	__AARGB0,F                                                              C:\MCC18\SRC\TRADIT~1\MATH\fxm1616s.asm
                                                                                                                            C:\MCC18\SRC\TRADIT~1\MATH\fxm1616s.asm
                                           TSIGN1616A                                                                       C:\MCC18\SRC\TRADIT~1\MATH\fxm1616s.asm
0017a6   ae13     BTFSS     0x13,0x7,0x0   		BTFSS	__TEMPB0,MSB                                                             C:\MCC18\SRC\TRADIT~1\MATH\fxm1616s.asm
0017a8   0c00     RETLW     0x0            		RETLW	0x00                                                                     C:\MCC18\SRC\TRADIT~1\MATH\fxm1616s.asm
0017aa   500d     MOVF      0xd,0x0,0x0    		MOVF	__BARGB1,W                                                                C:\MCC18\SRC\TRADIT~1\MATH\fxm1616s.asm
0017ac   5e08     SUBWF     0x8,0x1,0x0    		SUBWF	__AARGB1,F                                                               C:\MCC18\SRC\TRADIT~1\MATH\fxm1616s.asm
0017ae   500e     MOVF      0xe,0x0,0x0    		MOVF	__BARGB0,W                                                                C:\MCC18\SRC\TRADIT~1\MATH\fxm1616s.asm
0017b0   5a09     SUBWFB    0x9,0x1,0x0    		SUBWFB	__AARGB0,F                                                              C:\MCC18\SRC\TRADIT~1\MATH\fxm1616s.asm
                                           		                                                                               C:\MCC18\SRC\TRADIT~1\MATH\fxm1616s.asm
0017b2   0c00     RETLW     0x0            		RETLW	0x00                                                                     C:\MCC18\SRC\TRADIT~1\MATH\fxm1616s.asm
                                                                                                                            C:\MCC18\SRC\TRADIT~1\MATH\fxm1616s.asm
                                           		END                                                                            C:\MCC18\SRC\TRADIT~1\MATH\fxm1616s.asm
                                           ;	RCS Header $Id: cmath18.asm,v 1.5 2006/01/12 23:16:38 rhinec Exp $             C:\MCC18\SRC\TRADIT~1\MATH\cmath18.asm
                                                                                                                            C:\MCC18\SRC\TRADIT~1\MATH\cmath18.asm
                                           ;       CMATH18 DATA DEFINITION FILE                                             C:\MCC18\SRC\TRADIT~1\MATH\cmath18.asm
                                                                                                                            C:\MCC18\SRC\TRADIT~1\MATH\cmath18.asm
                                           ;******************************************************************************* C:\MCC18\SRC\TRADIT~1\MATH\cmath18.asm
                                           ;   VARIABLE ALLOCATION - Core math library routines                             C:\MCC18\SRC\TRADIT~1\MATH\cmath18.asm
                                           ;******************************************************************************* C:\MCC18\SRC\TRADIT~1\MATH\cmath18.asm
                                                                                                                            C:\MCC18\SRC\TRADIT~1\MATH\cmath18.asm
                                           MATH_DATA      UDATA_ACS                                                         C:\MCC18\SRC\TRADIT~1\MATH\cmath18.asm
                                                                                                                            C:\MCC18\SRC\TRADIT~1\MATH\cmath18.asm
                                           SIGN		RES 1       ; save location for sign in MSB                                C:\MCC18\SRC\TRADIT~1\MATH\cmath18.asm
                                           __FPFLAGSbits                                                                    C:\MCC18\SRC\TRADIT~1\MATH\cmath18.asm
                                           __FPFLAGS		RES 1       ; floating point library exception flags                  C:\MCC18\SRC\TRADIT~1\MATH\cmath18.asm
                                                                                                                            C:\MCC18\SRC\TRADIT~1\MATH\cmath18.asm
                                                   GLOBAL  SIGN, __FPFLAGS, __FPFLAGSbits                                   C:\MCC18\SRC\TRADIT~1\MATH\cmath18.asm
                                           	                                                                                C:\MCC18\SRC\TRADIT~1\MATH\cmath18.asm
                                                   END                                                                      C:\MCC18\SRC\TRADIT~1\MATH\cmath18.asm
                                           ;	RCS Header $Id: aarg.asm,v 1.3 2006/01/12 23:16:38 rhinec Exp $                C:\MCC18\SRC\TRADIT~1\MATH\aarg.asm
                                                                                                                            C:\MCC18\SRC\TRADIT~1\MATH\aarg.asm
                                           ;       CMATH18 DATA DEFINITION FILE                                             C:\MCC18\SRC\TRADIT~1\MATH\aarg.asm
                                                                                                                            C:\MCC18\SRC\TRADIT~1\MATH\aarg.asm
                                           ;******************************************************************************* C:\MCC18\SRC\TRADIT~1\MATH\aarg.asm
                                           ;   VARIABLE ALLOCATION - Core math library routines                             C:\MCC18\SRC\TRADIT~1\MATH\aarg.asm
                                           ;******************************************************************************* C:\MCC18\SRC\TRADIT~1\MATH\aarg.asm
                                                                                                                            C:\MCC18\SRC\TRADIT~1\MATH\aarg.asm
                                           MATH_DATA      UDATA_ACS                                                         C:\MCC18\SRC\TRADIT~1\MATH\aarg.asm
                                                                                                                            C:\MCC18\SRC\TRADIT~1\MATH\aarg.asm
                                           __REMB3                                                                          C:\MCC18\SRC\TRADIT~1\MATH\aarg.asm
                                           __AARGB7		RES 1                                                                  C:\MCC18\SRC\TRADIT~1\MATH\aarg.asm
                                           __REMB2                                                                          C:\MCC18\SRC\TRADIT~1\MATH\aarg.asm
                                           __AARGB6		RES 1                                                                  C:\MCC18\SRC\TRADIT~1\MATH\aarg.asm
                                           __REMB1                                                                          C:\MCC18\SRC\TRADIT~1\MATH\aarg.asm
                                           __AARGB5		RES 1                                                                  C:\MCC18\SRC\TRADIT~1\MATH\aarg.asm
                                           __REMB0                                                                          C:\MCC18\SRC\TRADIT~1\MATH\aarg.asm
                                           __AARGB4		RES 1                                                                  C:\MCC18\SRC\TRADIT~1\MATH\aarg.asm
                                           __AARGB3		RES 1                                                                  C:\MCC18\SRC\TRADIT~1\MATH\aarg.asm
                                           __AARGB2		RES 1                                                                  C:\MCC18\SRC\TRADIT~1\MATH\aarg.asm
                                           __AARGB1		RES 1                                                                  C:\MCC18\SRC\TRADIT~1\MATH\aarg.asm
                                           __AARGB0		RES 1                                                                  C:\MCC18\SRC\TRADIT~1\MATH\aarg.asm
                                                                                                                            C:\MCC18\SRC\TRADIT~1\MATH\aarg.asm
                                           __AEXP		RES 1       ; 8 bit biased exponent for argument A                       C:\MCC18\SRC\TRADIT~1\MATH\aarg.asm
                                                                                                                            C:\MCC18\SRC\TRADIT~1\MATH\aarg.asm
                                           	GLOBAL	__AARGB0, __AARGB1, __AARGB2, __AARGB3                                   C:\MCC18\SRC\TRADIT~1\MATH\aarg.asm
                                                   GLOBAL  __AARGB4, __AARGB5, __AARGB6, __AARGB7                           C:\MCC18\SRC\TRADIT~1\MATH\aarg.asm
                                           	GLOBAL  __AEXP                                                                  C:\MCC18\SRC\TRADIT~1\MATH\aarg.asm
                                           	GLOBAL  __REMB3, __REMB2, __REMB1, __REMB0                                      C:\MCC18\SRC\TRADIT~1\MATH\aarg.asm
                                                                                                                            C:\MCC18\SRC\TRADIT~1\MATH\aarg.asm
                                                   END                                                                      C:\MCC18\SRC\TRADIT~1\MATH\aarg.asm
                                           ;	RCS Header $Id: barg.asm,v 1.3 2006/01/12 23:16:38 rhinec Exp $                C:\MCC18\SRC\TRADIT~1\MATH\barg.asm
                                                                                                                            C:\MCC18\SRC\TRADIT~1\MATH\barg.asm
                                           ;       CMATH18 DATA DEFINITION FILE                                             C:\MCC18\SRC\TRADIT~1\MATH\barg.asm
                                                                                                                            C:\MCC18\SRC\TRADIT~1\MATH\barg.asm
                                           ;******************************************************************************* C:\MCC18\SRC\TRADIT~1\MATH\barg.asm
                                           ;   VARIABLE ALLOCATION - Core math library routines                             C:\MCC18\SRC\TRADIT~1\MATH\barg.asm
                                           ;******************************************************************************* C:\MCC18\SRC\TRADIT~1\MATH\barg.asm
                                                                                                                            C:\MCC18\SRC\TRADIT~1\MATH\barg.asm
                                           MATH_DATA      UDATA_ACS                                                         C:\MCC18\SRC\TRADIT~1\MATH\barg.asm
                                                                                                                            C:\MCC18\SRC\TRADIT~1\MATH\barg.asm
                                           __BARGB3		RES 1                                                                  C:\MCC18\SRC\TRADIT~1\MATH\barg.asm
                                           __BARGB2		RES 1                                                                  C:\MCC18\SRC\TRADIT~1\MATH\barg.asm
                                           __BARGB1		RES 1                                                                  C:\MCC18\SRC\TRADIT~1\MATH\barg.asm
                                           __BARGB0		RES 1       ; most significant byte of argument B                      C:\MCC18\SRC\TRADIT~1\MATH\barg.asm
                                                                                                                            C:\MCC18\SRC\TRADIT~1\MATH\barg.asm
                                           __BEXP		RES 1       ; 8 bit biased exponent for argument B                       C:\MCC18\SRC\TRADIT~1\MATH\barg.asm
                                                                                                                            C:\MCC18\SRC\TRADIT~1\MATH\barg.asm
                                                   GLOBAL  __BARGB3, __BARGB2, __BARGB1, __BARGB0                           C:\MCC18\SRC\TRADIT~1\MATH\barg.asm
                                                   GLOBAL  __BEXP                                                           C:\MCC18\SRC\TRADIT~1\MATH\barg.asm
                                                                                                                            C:\MCC18\SRC\TRADIT~1\MATH\barg.asm
                                                   END                                                                      C:\MCC18\SRC\TRADIT~1\MATH\barg.asm
                                           ;	RCS Header $Id: temparg.asm,v 1.3 2006/01/12 23:16:38 rhinec Exp $             C:\MCC18\SRC\TRADIT~1\MATH\temparg.asm
                                                                                                                            C:\MCC18\SRC\TRADIT~1\MATH\temparg.asm
                                           ;       CMATH18 DATA DEFINITION FILE                                             C:\MCC18\SRC\TRADIT~1\MATH\temparg.asm
                                                                                                                            C:\MCC18\SRC\TRADIT~1\MATH\temparg.asm
                                           ;******************************************************************************* C:\MCC18\SRC\TRADIT~1\MATH\temparg.asm
                                           ;   VARIABLE ALLOCATION - Core math library routines                             C:\MCC18\SRC\TRADIT~1\MATH\temparg.asm
                                           ;******************************************************************************* C:\MCC18\SRC\TRADIT~1\MATH\temparg.asm
                                                                                                                            C:\MCC18\SRC\TRADIT~1\MATH\temparg.asm
                                           MATH_DATA      UDATA_ACS                                                         C:\MCC18\SRC\TRADIT~1\MATH\temparg.asm
                                                                                                                            C:\MCC18\SRC\TRADIT~1\MATH\temparg.asm
                                           __TEMPB3		RES 1                                                                  C:\MCC18\SRC\TRADIT~1\MATH\temparg.asm
                                           __TEMPB2		RES 1                                                                  C:\MCC18\SRC\TRADIT~1\MATH\temparg.asm
                                           __TEMPB1		RES 1                                                                  C:\MCC18\SRC\TRADIT~1\MATH\temparg.asm
                                           __TEMP                                                                           C:\MCC18\SRC\TRADIT~1\MATH\temparg.asm
                                           __TEMPB0		RES 1       ; temporary storage                                        C:\MCC18\SRC\TRADIT~1\MATH\temparg.asm
                                                                                                                            C:\MCC18\SRC\TRADIT~1\MATH\temparg.asm
                                                   GLOBAL  __TEMPB3, __TEMPB2, __TEMPB1, __TEMPB0, __TEMP                   C:\MCC18\SRC\TRADIT~1\MATH\temparg.asm
                                           	                                                                                C:\MCC18\SRC\TRADIT~1\MATH\temparg.asm
                                                   END                                                                      C:\MCC18\SRC\TRADIT~1\MATH\temparg.asm
                                                                                                                            C:\MCC18\src\TRADIT~1\stdclib\__init.c
                                           /** @name __init                                                                 C:\MCC18\src\TRADIT~1\stdclib\__init.c
                                            * The {\bf __init} is called if the linker can not find a                       C:\MCC18\src\TRADIT~1\stdclib\__init.c
                                            * user defined version for it                                                   C:\MCC18\src\TRADIT~1\stdclib\__init.c
                                            */                                                                              C:\MCC18\src\TRADIT~1\stdclib\__init.c
                                                                                                                            C:\MCC18\src\TRADIT~1\stdclib\__init.c
                                           void __init (void)                                                               C:\MCC18\src\TRADIT~1\stdclib\__init.c
                                           {                                                                                C:\MCC18\src\TRADIT~1\stdclib\__init.c
0017fe   0012     RETURN    0x0            }                                                                                C:\MCC18\src\TRADIT~1\stdclib\__init.c
                                                                                                                            C:\MCC18\src\TRADIT~1\stdclib\__init.c
